

Microchip MPLAB XC8 Assembler V2.46 build 20240104201356 
                                                                                               Mon Apr 08 19:51:58 2024

Microchip MPLAB XC8 C Compiler v2.46 (Free license) build 20240104201356 Og1 
     1                           	processor	18F25K22
     2                           	fnconf	rparam,??,?,0
     3                           	pagewidth 120
     4                           	opt	flic
     5                           	psect	idataCOMRAM,global,class=CODE,delta=1,noexec
     6                           	psect	cinit,global,reloc=2,class=CODE,delta=1
     7                           	psect	bssCOMRAM,global,class=COMRAM,space=1,delta=1,lowdata,noexec
     8                           	psect	dataCOMRAM,global,class=COMRAM,space=1,delta=1,lowdata,noexec
     9                           	psect	cstackCOMRAM,global,class=COMRAM,space=1,delta=1,lowdata,noexec
    10                           	psect	text0,global,reloc=2,class=CODE,delta=1
    11                           	psect	text1,global,reloc=2,class=CODE,delta=1
    12                           	psect	text2,global,reloc=2,class=CODE,delta=1,group=1
    13                           	psect	text3,global,reloc=2,class=CODE,delta=1
    14                           	psect	intcode,global,reloc=2,class=CODE,delta=1
    15                           	psect	smallconst,global,reloc=2,class=SMALLCONST,delta=1,noexec
    16                           	psect	intsave_regs,global,class=BIGRAM,space=1,delta=1,noexec
    17                           	psect	rparam,global,class=COMRAM,space=1,delta=1,noexec
    18                           	psect	temp,global,ovrld,common,class=COMRAM,space=1,delta=1,lowdata
    19                           	psect	config,global,abs,ovrld,class=CONFIG,space=4,delta=1,noexec
    20   000000                     
    21                           ; Generated 12/10/2023 GMT
    22                           ; 
    23                           ; Copyright © 2023, Microchip Technology Inc. and its subsidiaries ("Microchip")
    24                           ; All rights reserved.
    25                           ; 
    26                           ; This software is developed by Microchip Technology Inc. and its subsidiaries ("Microch
      +                          ip").
    27                           ; 
    28                           ; Redistribution and use in source and binary forms, with or without modification, are
    29                           ; permitted provided that the following conditions are met:
    30                           ; 
    31                           ;     1. Redistributions of source code must retain the above copyright notice, this lis
      +                          t of
    32                           ;        conditions and the following disclaimer.
    33                           ; 
    34                           ;     2. Redistributions in binary form must reproduce the above copyright notice, this 
      +                          list
    35                           ;        of conditions and the following disclaimer in the documentation and/or other
    36                           ;        materials provided with the distribution. Publication is not required when
    37                           ;        this file is used in an embedded application.
    38                           ; 
    39                           ;     3. Microchip's name may not be used to endorse or promote products derived from th
      +                          is
    40                           ;        software without specific prior written permission.
    41                           ; 
    42                           ; THIS SOFTWARE IS PROVIDED BY MICROCHIP "AS IS" AND ANY EXPRESS OR IMPLIED WARRANTIES,
    43                           ; INCLUDING, BUT NOT LIMITED TO, THE IMPLIED WARRANTIES OF MERCHANTABILITY AND FITNESS F
      +                          OR
    44                           ; PURPOSE ARE DISCLAIMED.  IN NO EVENT SHALL MICROCHIP BE LIABLE FOR ANY DIRECT, INDIREC
      +                          T,
    45                           ; INCIDENTAL, SPECIAL, EXEMPLARY, OR CONSEQUENTIAL DAMAGES (INCLUDING BUT NOT LIMITED TO
    46                           ; PROCUREMENT OF SUBSTITUTE GOODS OR SERVICES; LOSS OF USE, DATA OR PROFITS; OR BUSINESS
    47                           ; INTERRUPTION) HOWSOEVER CAUSED AND ON ANY THEORY OF LIABILITY, WHETHER IN CONTRACT, ST
      +                          RICT
    48                           ; LIABILITY, OR TORT (INCLUDING NEGLIGENCE OR OTHERWISE) ARISING IN ANY WAY OUT OF THE U
      +                          SE OF
    49                           ; THIS SOFTWARE, EVEN IF ADVISED OF THE POSSIBILITY OF SUCH DAMAGE.
    50                           ; 
    51                           ; 
    52                           ; Code-generator required, PIC18F25K22 Definitions
    53                           ; 
    54                           ; SFR Addresses
    55   000000                     
    56                           	psect	idataCOMRAM
    57   0007A6                     __pidataCOMRAM:
    58                           	callstack 0
    59                           
    60                           ;initializer for _timeout
    61   0007A6  03E8               	dw	1000
    62   000000                     _RCREG1	set	4014
    63   000000                     _TXREG	set	4013
    64   000000                     _TRISCbits	set	3988
    65   000000                     _TRISC7	set	31911
    66   000000                     _ANSELCbits	set	3898
    67   000000                     _TRISC6	set	31910
    68   000000                     _OSCTUNE	set	3995
    69   000000                     _PIE1bits	set	3997
    70   000000                     _SPBRG1	set	4015
    71   000000                     _SSP1CON2bits	set	4037
    72   000000                     _SSP1CON1	set	4038
    73   000000                     _SSP1STAT	set	4039
    74   000000                     _OSCCON	set	4051
    75   000000                     _INTCONbits	set	4082
    76   000000                     _PIR1bits	set	3998
    77   000000                     _RCSTA1	set	4011
    78   000000                     _TXSTA1	set	4012
    79   000000                     _SSP1BUF	set	4041
    80   000000                     _SSP1ADD	set	4040
    81                           
    82                           ; #config settings
    83                           
    84                           	psect	cinit
    85   000748                     __pcinit:
    86                           	callstack 0
    87   000748                     start_initialization:
    88                           	callstack 0
    89   000748                     __initialization:
    90                           	callstack 0
    91                           
    92                           ; Initialize objects allocated to COMRAM (2 bytes)
    93                           ; load TBLPTR registers with __pidataCOMRAM
    94   000748  0EA6               	movlw	low __pidataCOMRAM
    95   00074A  6EF6               	movwf	tblptrl,c
    96   00074C  0E07               	movlw	high __pidataCOMRAM
    97   00074E  6EF7               	movwf	tblptrh,c
    98   000750  0E00               	movlw	low (__pidataCOMRAM shr (0+16))
    99   000752  6EF8               	movwf	tblptru,c
   100   000754  0009               	tblrd		*+	;fetch initializer
   101   000756  CFF5 F043          	movff	tablat,__pdataCOMRAM
   102   00075A  0009               	tblrd		*+	;fetch initializer
   103   00075C  CFF5 F044          	movff	tablat,__pdataCOMRAM+1
   104                           
   105                           ; Clear objects allocated to COMRAM (52 bytes)
   106   000760  EE00  F001         	lfsr	0,__pbssCOMRAM
   107   000764  0E34               	movlw	52
   108   000766                     clear_0:
   109   000766  6AEE               	clrf	postinc0,c
   110   000768  06E8               	decf	wreg,f,c
   111   00076A  E1FD               	bnz	clear_0
   112   00076C                     end_of_initialization:
   113                           	callstack 0
   114   00076C                     __end_of__initialization:
   115                           	callstack 0
   116   00076C  9045               	bcf	int$flags,0,c	;clear compiler interrupt flag (level 1)
   117   00076E  9245               	bcf	int$flags,1,c	;clear compiler interrupt flag (level 2)
   118   000770  0100               	movlb	0
   119   000772  EFBB  F003         	goto	_main	;jump to C main() function
   120                           
   121                           	psect	bssCOMRAM
   122   000001                     __pbssCOMRAM:
   123                           	callstack 0
   124   000001                     _user_command:
   125                           	callstack 0
   126   000001                     	ds	52
   127                           
   128                           	psect	dataCOMRAM
   129   000043                     __pdataCOMRAM:
   130                           	callstack 0
   131   000043                     _timeout:
   132                           	callstack 0
   133   000043                     	ds	2
   134                           
   135                           	psect	cstackCOMRAM
   136   000035                     __pcstackCOMRAM:
   137                           	callstack 0
   138   000035                     ?___fltol:
   139                           	callstack 0
   140   000035                     ___fltol@f1:
   141                           	callstack 0
   142                           
   143                           ; 4 bytes @ 0x0
   144   000035                     	ds	4
   145   000039                     ??___fltol:
   146                           
   147                           ; 1 bytes @ 0x4
   148   000039                     	ds	4
   149   00003D                     ___fltol@sign1:
   150                           	callstack 0
   151                           
   152                           ; 1 bytes @ 0x8
   153   00003D                     	ds	1
   154   00003E                     ___fltol@exp1:
   155                           	callstack 0
   156                           
   157                           ; 1 bytes @ 0x9
   158   00003E                     	ds	1
   159   00003F                     UART_Init@temp:
   160                           	callstack 0
   161                           
   162                           ; 4 bytes @ 0xA
   163   00003F                     	ds	4
   164   000043                     
   165                           ; 1 bytes @ 0xE
   166 ;;
   167 ;;Main: autosize = 0, tempsize = 0, incstack = 0, save=0
   168 ;;
   169 ;; *************** function _main *****************
   170 ;; Defined at:
   171 ;;		line 114 in file "main.c"
   172 ;; Parameters:    Size  Location     Type
   173 ;;		None
   174 ;; Auto vars:     Size  Location     Type
   175 ;;		None
   176 ;; Return value:  Size  Location     Type
   177 ;;                  1    wreg      void 
   178 ;; Registers used:
   179 ;;		wreg, status,2, status,0, cstack
   180 ;; Tracked objects:
   181 ;;		On entry : 0/0
   182 ;;		On exit  : 0/0
   183 ;;		Unchanged: 0/0
   184 ;; Data sizes:     COMRAM   BANK0   BANK1   BANK2   BANK3   BANK4   BANK5
   185 ;;      Params:         0       0       0       0       0       0       0
   186 ;;      Locals:         0       0       0       0       0       0       0
   187 ;;      Temps:          0       0       0       0       0       0       0
   188 ;;      Totals:         0       0       0       0       0       0       0
   189 ;;Total ram usage:        0 bytes
   190 ;; Hardware stack levels required when called: 3
   191 ;; This function calls:
   192 ;;		_I2C2_Init
   193 ;;		_UART_Init
   194 ;; This function is called by:
   195 ;;		Startup code after reset
   196 ;; This function uses a non-reentrant model
   197 ;;
   198                           
   199                           	psect	text0
   200   000776                     __ptext0:
   201                           	callstack 0
   202   000776                     _main:
   203                           	callstack 28
   204   000776                     
   205                           ;main.c: 116:     OSCCON = 0x70;
   206   000776  0E70               	movlw	112
   207   000778  6ED3               	movwf	211,c	;volatile
   208                           
   209                           ;main.c: 117:     OSCTUNE = 0xC0;
   210   00077A  0EC0               	movlw	192
   211   00077C  6E9B               	movwf	155,c	;volatile
   212   00077E                     
   213                           ;main.c: 119:     UART_Init();
   214   00077E  EC84  F003         	call	_UART_Init	;wreg free
   215   000782                     
   216                           ;main.c: 120:     I2C2_Init();
   217   000782  ECC7  F003         	call	_I2C2_Init	;wreg free
   218   000786                     l57:
   219   000786  EFC3  F003         	goto	l57
   220   00078A  EF25  F000         	goto	start
   221   00078E                     __end_of_main:
   222                           	callstack 0
   223                           
   224 ;; *************** function _UART_Init *****************
   225 ;; Defined at:
   226 ;;		line 34 in file "main.c"
   227 ;; Parameters:    Size  Location     Type
   228 ;;		None
   229 ;; Auto vars:     Size  Location     Type
   230 ;;  temp            4   10[COMRAM] float 
   231 ;; Return value:  Size  Location     Type
   232 ;;                  1    wreg      void 
   233 ;; Registers used:
   234 ;;		wreg, status,2, status,0, cstack
   235 ;; Tracked objects:
   236 ;;		On entry : 0/0
   237 ;;		On exit  : 0/0
   238 ;;		Unchanged: 0/0
   239 ;; Data sizes:     COMRAM   BANK0   BANK1   BANK2   BANK3   BANK4   BANK5
   240 ;;      Params:         0       0       0       0       0       0       0
   241 ;;      Locals:         4       0       0       0       0       0       0
   242 ;;      Temps:          0       0       0       0       0       0       0
   243 ;;      Totals:         4       0       0       0       0       0       0
   244 ;;Total ram usage:        4 bytes
   245 ;; Hardware stack levels used: 1
   246 ;; Hardware stack levels required when called: 2
   247 ;; This function calls:
   248 ;;		___fltol
   249 ;; This function is called by:
   250 ;;		_main
   251 ;; This function uses a non-reentrant model
   252 ;;
   253                           
   254                           	psect	text1
   255   000708                     __ptext1:
   256                           	callstack 0
   257   000708                     _UART_Init:
   258                           	callstack 28
   259   000708                     
   260                           ;main.c: 36:     float temp;;main.c: 38:     TRISC6 = 0;
   261   000708  9C94               	bcf	3988,6,c	;volatile
   262                           
   263                           ;main.c: 39:     TRISC7 = 1;
   264   00070A  8E94               	bsf	3988,7,c	;volatile
   265                           
   266                           ;main.c: 40:     ANSELCbits.ANSC7 = 0;
   267   00070C  010F               	movlb	15	; () banked
   268   00070E  9F3A               	bcf	58,7,b	;volatile
   269   000710                     
   270                           ; BSR set to: 15
   271                           ;main.c: 43:     temp = (((float)(64000000 / 64) / (float)9600) - 1);
   272   000710  0E55               	movlw	85
   273   000712  6E3F               	movwf	UART_Init@temp^0,c
   274   000714  0E55               	movlw	85
   275   000716  6E40               	movwf	(UART_Init@temp+1)^0,c
   276   000718  0ECE               	movlw	206
   277   00071A  6E41               	movwf	(UART_Init@temp+2)^0,c
   278   00071C  0E42               	movlw	66
   279   00071E  6E42               	movwf	(UART_Init@temp+3)^0,c
   280   000720                     
   281                           ; BSR set to: 15
   282                           ;main.c: 44:     SPBRG1 = (int)temp;
   283   000720  C03F  F035         	movff	UART_Init@temp,___fltol@f1
   284   000724  C040  F036         	movff	UART_Init@temp+1,___fltol@f1+1
   285   000728  C041  F037         	movff	UART_Init@temp+2,___fltol@f1+2
   286   00072C  C042  F038         	movff	UART_Init@temp+3,___fltol@f1+3
   287   000730  EC01  F003         	call	___fltol	;wreg free
   288   000734  5035               	movf	?___fltol^0,w,c
   289   000736  6EAF               	movwf	175,c	;volatile
   290   000738                     
   291                           ;main.c: 46:     INTCONbits.GIE = 1;
   292   000738  8EF2               	bsf	242,7,c	;volatile
   293   00073A                     
   294                           ;main.c: 47:     INTCONbits.PEIE = 1;
   295   00073A  8CF2               	bsf	242,6,c	;volatile
   296   00073C                     
   297                           ;main.c: 48:     PIE1bits.RC1IE = 1;
   298   00073C  8A9D               	bsf	157,5,c	;volatile
   299   00073E                     
   300                           ;main.c: 51:     TXSTA1 = 0x20;
   301   00073E  0E20               	movlw	32
   302   000740  6EAC               	movwf	172,c	;volatile
   303   000742                     
   304                           ;main.c: 52:     RCSTA1 = 0x90;
   305   000742  0E90               	movlw	144
   306   000744  6EAB               	movwf	171,c	;volatile
   307   000746  0012               	return		;funcret
   308   000748                     __end_of_UART_Init:
   309                           	callstack 0
   310                           
   311 ;; *************** function ___fltol *****************
   312 ;; Defined at:
   313 ;;		line 43 in file "C:\Program Files\Microchip\xc8\v2.46\pic\sources\c99\common\fltol.c"
   314 ;; Parameters:    Size  Location     Type
   315 ;;  f1              4    0[COMRAM] void 
   316 ;; Auto vars:     Size  Location     Type
   317 ;;  exp1            1    9[COMRAM] unsigned char 
   318 ;;  sign1           1    8[COMRAM] unsigned char 
   319 ;; Return value:  Size  Location     Type
   320 ;;                  4    0[COMRAM] long 
   321 ;; Registers used:
   322 ;;		wreg, status,2, status,0
   323 ;; Tracked objects:
   324 ;;		On entry : 0/0
   325 ;;		On exit  : 0/0
   326 ;;		Unchanged: 0/0
   327 ;; Data sizes:     COMRAM   BANK0   BANK1   BANK2   BANK3   BANK4   BANK5
   328 ;;      Params:         4       0       0       0       0       0       0
   329 ;;      Locals:         2       0       0       0       0       0       0
   330 ;;      Temps:          4       0       0       0       0       0       0
   331 ;;      Totals:        10       0       0       0       0       0       0
   332 ;;Total ram usage:       10 bytes
   333 ;; Hardware stack levels used: 1
   334 ;; Hardware stack levels required when called: 1
   335 ;; This function calls:
   336 ;;		Nothing
   337 ;; This function is called by:
   338 ;;		_UART_Init
   339 ;; This function uses a non-reentrant model
   340 ;;
   341                           
   342                           	psect	text2
   343   000602                     __ptext2:
   344                           	callstack 0
   345   000602                     ___fltol:
   346                           	callstack 28
   347   000602  3437               	rlcf	(___fltol@f1+2)^0,w,c
   348   000604  3438               	rlcf	(___fltol@f1+3)^0,w,c
   349   000606  6E3E               	movwf	___fltol@exp1^0,c
   350   000608  503E               	movf	___fltol@exp1^0,w,c
   351   00060A  A4D8               	btfss	status,2,c
   352   00060C  EF0A  F003         	goto	u191
   353   000610  EF0C  F003         	goto	u190
   354   000614                     u191:
   355   000614  EF16  F003         	goto	l907
   356   000618                     u190:
   357   000618                     l903:
   358   000618  0E00               	movlw	0
   359   00061A  6E35               	movwf	?___fltol^0,c
   360   00061C  0E00               	movlw	0
   361   00061E  6E36               	movwf	(?___fltol+1)^0,c
   362   000620  0E00               	movlw	0
   363   000622  6E37               	movwf	(?___fltol+2)^0,c
   364   000624  0E00               	movlw	0
   365   000626  6E38               	movwf	(?___fltol+3)^0,c
   366   000628  EF83  F003         	goto	l421
   367   00062C                     l907:
   368   00062C  C035  F039         	movff	___fltol@f1,??___fltol
   369   000630  C036  F03A         	movff	___fltol@f1+1,??___fltol+1
   370   000634  C037  F03B         	movff	___fltol@f1+2,??___fltol+2
   371   000638  C038  F03C         	movff	___fltol@f1+3,??___fltol+3
   372   00063C  0E20               	movlw	32
   373   00063E  EF26  F003         	goto	u200
   374   000642                     u205:
   375   000642  90D8               	bcf	status,0,c
   376   000644  323C               	rrcf	(??___fltol+3)^0,f,c
   377   000646  323B               	rrcf	(??___fltol+2)^0,f,c
   378   000648  323A               	rrcf	(??___fltol+1)^0,f,c
   379   00064A  3239               	rrcf	??___fltol^0,f,c
   380   00064C                     u200:
   381   00064C  2EE8               	decfsz	wreg,f,c
   382   00064E  EF21  F003         	goto	u205
   383   000652  5039               	movf	??___fltol^0,w,c
   384   000654  6E3D               	movwf	___fltol@sign1^0,c
   385   000656  8E37               	bsf	(___fltol@f1+2)^0,7,c
   386   000658  0EFF               	movlw	255
   387   00065A  1635               	andwf	___fltol@f1^0,f,c
   388   00065C  0EFF               	movlw	255
   389   00065E  1636               	andwf	(___fltol@f1+1)^0,f,c
   390   000660  0EFF               	movlw	255
   391   000662  1637               	andwf	(___fltol@f1+2)^0,f,c
   392   000664  0E00               	movlw	0
   393   000666  1638               	andwf	(___fltol@f1+3)^0,f,c
   394   000668  0E96               	movlw	150
   395   00066A  5E3E               	subwf	___fltol@exp1^0,f,c
   396   00066C  BE3E               	btfsc	___fltol@exp1^0,7,c
   397   00066E  EF3D  F003         	goto	u210
   398   000672  EF3B  F003         	goto	u211
   399   000676                     u211:
   400   000676  EF53  F003         	goto	l927
   401   00067A                     u210:
   402   00067A  503E               	movf	___fltol@exp1^0,w,c
   403   00067C  0A80               	xorlw	128
   404   00067E  0F97               	addlw	151
   405   000680  B0D8               	btfsc	status,0,c
   406   000682  EF45  F003         	goto	u221
   407   000686  EF47  F003         	goto	u220
   408   00068A                     u221:
   409   00068A  EF49  F003         	goto	l923
   410   00068E                     u220:
   411   00068E  EF0C  F003         	goto	l903
   412   000692                     l923:
   413   000692  90D8               	bcf	status,0,c
   414   000694  3238               	rrcf	(___fltol@f1+3)^0,f,c
   415   000696  3237               	rrcf	(___fltol@f1+2)^0,f,c
   416   000698  3236               	rrcf	(___fltol@f1+1)^0,f,c
   417   00069A  3235               	rrcf	___fltol@f1^0,f,c
   418   00069C  3E3E               	incfsz	___fltol@exp1^0,f,c
   419   00069E  EF49  F003         	goto	l923
   420   0006A2  EF6B  F003         	goto	l937
   421   0006A6                     l927:
   422   0006A6  0E1F               	movlw	31
   423   0006A8  643E               	cpfsgt	___fltol@exp1^0,c
   424   0006AA  EF59  F003         	goto	u231
   425   0006AE  EF5B  F003         	goto	u230
   426   0006B2                     u231:
   427   0006B2  EF63  F003         	goto	l935
   428   0006B6                     u230:
   429   0006B6  EF0C  F003         	goto	l903
   430   0006BA                     l933:
   431   0006BA  90D8               	bcf	status,0,c
   432   0006BC  3635               	rlcf	___fltol@f1^0,f,c
   433   0006BE  3636               	rlcf	(___fltol@f1+1)^0,f,c
   434   0006C0  3637               	rlcf	(___fltol@f1+2)^0,f,c
   435   0006C2  3638               	rlcf	(___fltol@f1+3)^0,f,c
   436   0006C4  063E               	decf	___fltol@exp1^0,f,c
   437   0006C6                     l935:
   438   0006C6  503E               	movf	___fltol@exp1^0,w,c
   439   0006C8  A4D8               	btfss	status,2,c
   440   0006CA  EF69  F003         	goto	u241
   441   0006CE  EF6B  F003         	goto	u240
   442   0006D2                     u241:
   443   0006D2  EF5D  F003         	goto	l933
   444   0006D6                     u240:
   445   0006D6                     l937:
   446   0006D6  503D               	movf	___fltol@sign1^0,w,c
   447   0006D8  B4D8               	btfsc	status,2,c
   448   0006DA  EF71  F003         	goto	u251
   449   0006DE  EF73  F003         	goto	u250
   450   0006E2                     u251:
   451   0006E2  EF7B  F003         	goto	l941
   452   0006E6                     u250:
   453   0006E6  1E38               	comf	(___fltol@f1+3)^0,f,c
   454   0006E8  1E37               	comf	(___fltol@f1+2)^0,f,c
   455   0006EA  1E36               	comf	(___fltol@f1+1)^0,f,c
   456   0006EC  6C35               	negf	___fltol@f1^0,c
   457   0006EE  0E00               	movlw	0
   458   0006F0  2236               	addwfc	(___fltol@f1+1)^0,f,c
   459   0006F2  2237               	addwfc	(___fltol@f1+2)^0,f,c
   460   0006F4  2238               	addwfc	(___fltol@f1+3)^0,f,c
   461   0006F6                     l941:
   462   0006F6  C035  F035         	movff	___fltol@f1,?___fltol
   463   0006FA  C036  F036         	movff	___fltol@f1+1,?___fltol+1
   464   0006FE  C037  F037         	movff	___fltol@f1+2,?___fltol+2
   465   000702  C038  F038         	movff	___fltol@f1+3,?___fltol+3
   466   000706                     l421:
   467   000706  0012               	return		;funcret
   468   000708                     __end_of___fltol:
   469                           	callstack 0
   470                           
   471 ;; *************** function _I2C2_Init *****************
   472 ;; Defined at:
   473 ;;		line 20 in file "i2c.c"
   474 ;; Parameters:    Size  Location     Type
   475 ;;		None
   476 ;; Auto vars:     Size  Location     Type
   477 ;;		None
   478 ;; Return value:  Size  Location     Type
   479 ;;                  1    wreg      void 
   480 ;; Registers used:
   481 ;;		wreg, status,2
   482 ;; Tracked objects:
   483 ;;		On entry : 0/0
   484 ;;		On exit  : 0/0
   485 ;;		Unchanged: 0/0
   486 ;; Data sizes:     COMRAM   BANK0   BANK1   BANK2   BANK3   BANK4   BANK5
   487 ;;      Params:         0       0       0       0       0       0       0
   488 ;;      Locals:         0       0       0       0       0       0       0
   489 ;;      Temps:          0       0       0       0       0       0       0
   490 ;;      Totals:         0       0       0       0       0       0       0
   491 ;;Total ram usage:        0 bytes
   492 ;; Hardware stack levels used: 1
   493 ;; Hardware stack levels required when called: 1
   494 ;; This function calls:
   495 ;;		Nothing
   496 ;; This function is called by:
   497 ;;		_main
   498 ;; This function uses a non-reentrant model
   499 ;;
   500                           
   501                           	psect	text3
   502   00078E                     __ptext3:
   503                           	callstack 0
   504   00078E                     _I2C2_Init:
   505                           	callstack 29
   506   00078E                     
   507                           ;i2c.c: 21:     TRISCbits.RC4 = 1;
   508   00078E  8894               	bsf	148,4,c	;volatile
   509                           
   510                           ;i2c.c: 22:     TRISCbits.RC3 = 1;
   511   000790  8694               	bsf	148,3,c	;volatile
   512                           
   513                           ;i2c.c: 25:     ANSELCbits.ANSC3 = 0;
   514   000792  010F               	movlb	15	; () banked
   515   000794  973A               	bcf	58,3,b	;volatile
   516                           
   517                           ;i2c.c: 26:     ANSELCbits.ANSC4 = 0;
   518   000796  993A               	bcf	58,4,b	;volatile
   519   000798                     
   520                           ; BSR set to: 15
   521                           ;i2c.c: 28:     SSP1STAT = 0b10000000;
   522   000798  0E80               	movlw	128
   523   00079A  6EC7               	movwf	199,c	;volatile
   524                           
   525                           ;i2c.c: 37:  SSP1CON1 = 0b00101000;
   526   00079C  0E28               	movlw	40
   527   00079E  6EC6               	movwf	198,c	;volatile
   528                           
   529                           ;i2c.c: 38:     SSP1ADD = 159u;
   530   0007A0  0E9F               	movlw	159
   531   0007A2  6EC8               	movwf	200,c	;volatile
   532   0007A4                     
   533                           ; BSR set to: 15
   534   0007A4  0012               	return		;funcret
   535   0007A6                     __end_of_I2C2_Init:
   536                           	callstack 0
   537                           
   538 ;; *************** function _isr *****************
   539 ;; Defined at:
   540 ;;		line 74 in file "main.c"
   541 ;; Parameters:    Size  Location     Type
   542 ;;		None
   543 ;; Auto vars:     Size  Location     Type
   544 ;;  receive_data    1    0        unsigned char 
   545 ;; Return value:  Size  Location     Type
   546 ;;                  1    wreg      void 
   547 ;; Registers used:
   548 ;;		wreg, status,2, status,0
   549 ;; Tracked objects:
   550 ;;		On entry : 0/0
   551 ;;		On exit  : 0/0
   552 ;;		Unchanged: 0/0
   553 ;; Data sizes:     COMRAM   BANK0   BANK1   BANK2   BANK3   BANK4   BANK5
   554 ;;      Params:         0       0       0       0       0       0       0
   555 ;;      Locals:         0       0       0       0       0       0       0
   556 ;;      Temps:          0       0       0       0       0       0       0
   557 ;;      Totals:         0       0       0       0       0       0       0
   558 ;;Total ram usage:        0 bytes
   559 ;; Hardware stack levels used: 1
   560 ;; This function calls:
   561 ;;		Nothing
   562 ;; This function is called by:
   563 ;;		Interrupt level 2
   564 ;; This function uses a non-reentrant model
   565 ;;
   566                           
   567                           	psect	intcode
   568   000008                     __pintcode:
   569                           	callstack 0
   570   000008                     _isr:
   571                           	callstack 28
   572                           
   573                           ; BSR set to: 15
   574                           ;incstack = 0
   575   000008  8245               	bsf	int$flags,1,c	;set compiler interrupt flag (level 2)
   576   00000A                     
   577                           ;main.c: 79:     if (PIR1bits.RC1IF)
   578   00000A  AA9E               	btfss	158,5,c	;volatile
   579   00000C  EF0A  F000         	goto	i2u9_41
   580   000010  EF0C  F000         	goto	i2u9_40
   581   000014                     i2u9_41:
   582   000014  EF13  F000         	goto	i2l873
   583   000018                     i2u9_40:
   584   000018  50AE               	movf	174,w,c	;volatile
   585                           
   586                           ;main.c: 83:         PIR1bits.RC1IF = 0;
   587   00001A  9A9E               	bcf	158,5,c	;volatile
   588   00001C  EF13  F000         	goto	i2l873
   589   000020                     i2l871:
   590                           
   591                           ;main.c: 88:         timeout--;
   592   000020  0643               	decf	_timeout^0,f,c
   593   000022  A0D8               	btfss	status,0,c
   594   000024  0644               	decf	(_timeout+1)^0,f,c
   595   000026                     i2l873:
   596                           
   597                           ;main.c: 87:     while((PIR1bits.RC1IF == 0) && (timeout > 0)){
   598   000026  BA9E               	btfsc	158,5,c	;volatile
   599   000028  EF18  F000         	goto	i2u10_41
   600   00002C  EF1A  F000         	goto	i2u10_40
   601   000030                     i2u10_41:
   602   000030  EF23  F000         	goto	i2l52
   603   000034                     i2u10_40:
   604   000034  5043               	movf	_timeout^0,w,c
   605   000036  1044               	iorwf	(_timeout+1)^0,w,c
   606   000038  A4D8               	btfss	status,2,c
   607   00003A  EF21  F000         	goto	i2u11_41
   608   00003E  EF23  F000         	goto	i2u11_40
   609   000042                     i2u11_41:
   610   000042  EF10  F000         	goto	i2l871
   611   000046                     i2u11_40:
   612   000046                     i2l52:
   613   000046  9245               	bcf	int$flags,1,c	;clear compiler interrupt flag (level 2)
   614   000048  0011               	retfie		f
   615   00004A                     __end_of_isr:
   616                           	callstack 0
   617                           
   618                           	psect	smallconst
   619   000600                     __psmallconst:
   620                           	callstack 0
   621   000600  00                 	db	0
   622   000601  00                 	db	0	; dummy byte at the end
   623   000000                     
   624                           	psect	rparam
   625   000000                     
   626                           	psect	temp
   627   000045                     btemp:
   628                           	callstack 0
   629   000045                     	ds	1
   630   000000                     int$flags	set	btemp
   631   000000                     wtemp8	set	btemp+1
   632   000000                     ttemp5	set	btemp+1
   633   000000                     ttemp6	set	btemp+4
   634   000000                     ttemp7	set	btemp+8
   635                           
   636                           	psect	config
   637                           
   638                           ; Padding undefined space
   639   300000                     	org	3145728
   640   300000  FF                 	db	255
   641                           
   642                           ;Config register CONFIG1H @ 0x300001
   643                           ;	Oscillator Selection bits
   644                           ;	FOSC = INTIO67, Internal oscillator block
   645                           ;	4X PLL Enable
   646                           ;	PLLCFG = ON, Oscillator multiplied by 4
   647                           ;	Primary clock enable bit
   648                           ;	PRICLKEN = ON, Primary clock enabled
   649                           ;	Fail-Safe Clock Monitor Enable bit
   650                           ;	FCMEN = OFF, Fail-Safe Clock Monitor disabled
   651                           ;	Internal/External Oscillator Switchover bit
   652                           ;	IESO = OFF, Oscillator Switchover mode disabled
   653   300001                     	org	3145729
   654   300001  38                 	db	56
   655                           
   656                           ;Config register CONFIG2L @ 0x300002
   657                           ;	Power-up Timer Enable bit
   658                           ;	PWRTEN = OFF, Power up timer disabled
   659                           ;	Brown-out Reset Enable bits
   660                           ;	BOREN = SBORDIS, Brown-out Reset enabled in hardware only (SBOREN is disabled)
   661                           ;	Brown Out Reset Voltage bits
   662                           ;	BORV = 250, VBOR set to 2.50 V nominal
   663   300002                     	org	3145730
   664   300002  0F                 	db	15
   665                           
   666                           ;Config register CONFIG2H @ 0x300003
   667                           ;	Watchdog Timer Enable bits
   668                           ;	WDTEN = OFF, Watch dog timer is always disabled. SWDTEN has no effect.
   669                           ;	Watchdog Timer Postscale Select bits
   670                           ;	WDTPS = 32768, 1:32768
   671   300003                     	org	3145731
   672   300003  3C                 	db	60
   673                           
   674                           ; Padding undefined space
   675   300004                     	org	3145732
   676   300004  FF                 	db	255
   677                           
   678                           ;Config register CONFIG3H @ 0x300005
   679                           ;	CCP2 MUX bit
   680                           ;	CCP2MX = PORTC1, CCP2 input/output is multiplexed with RC1
   681                           ;	PORTB A/D Enable bit
   682                           ;	PBADEN = ON, PORTB<5:0> pins are configured as analog input channels on Reset
   683                           ;	P3A/CCP3 Mux bit
   684                           ;	CCP3MX = PORTB5, P3A/CCP3 input/output is multiplexed with RB5
   685                           ;	HFINTOSC Fast Start-up
   686                           ;	HFOFST = ON, HFINTOSC output and ready status are not delayed by the oscillator stable
      +                           status
   687                           ;	Timer3 Clock input mux bit
   688                           ;	T3CMX = PORTC0, T3CKI is on RC0
   689                           ;	ECCP2 B output mux bit
   690                           ;	P2BMX = PORTB5, P2B is on RB5
   691                           ;	MCLR Pin Enable bit
   692                           ;	MCLRE = EXTMCLR, MCLR pin enabled, RE3 input pin disabled
   693   300005                     	org	3145733
   694   300005  BF                 	db	191
   695                           
   696                           ;Config register CONFIG4L @ 0x300006
   697                           ;	Stack Full/Underflow Reset Enable bit
   698                           ;	STVREN = ON, Stack full/underflow will cause Reset
   699                           ;	Single-Supply ICSP Enable bit
   700                           ;	LVP = ON, Single-Supply ICSP enabled if MCLRE is also 1
   701                           ;	Extended Instruction Set Enable bit
   702                           ;	XINST = OFF, Instruction set extension and Indexed Addressing mode disabled (Legacy mo
      +                          de)
   703                           ;	Background Debug
   704                           ;	DEBUG = 0x1, unprogrammed default
   705   300006                     	org	3145734
   706   300006  85                 	db	133
   707                           
   708                           ; Padding undefined space
   709   300007                     	org	3145735
   710   300007  FF                 	db	255
   711                           
   712                           ;Config register CONFIG5L @ 0x300008
   713                           ;	Code Protection Block 0
   714                           ;	CP0 = OFF, Block 0 (000800-001FFFh) not code-protected
   715                           ;	Code Protection Block 1
   716                           ;	CP1 = OFF, Block 1 (002000-003FFFh) not code-protected
   717                           ;	Code Protection Block 2
   718                           ;	CP2 = OFF, Block 2 (004000-005FFFh) not code-protected
   719                           ;	Code Protection Block 3
   720                           ;	CP3 = OFF, Block 3 (006000-007FFFh) not code-protected
   721   300008                     	org	3145736
   722   300008  0F                 	db	15
   723                           
   724                           ;Config register CONFIG5H @ 0x300009
   725                           ;	Boot Block Code Protection bit
   726                           ;	CPB = OFF, Boot block (000000-0007FFh) not code-protected
   727                           ;	Data EEPROM Code Protection bit
   728                           ;	CPD = OFF, Data EEPROM not code-protected
   729   300009                     	org	3145737
   730   300009  C0                 	db	192
   731                           
   732                           ;Config register CONFIG6L @ 0x30000A
   733                           ;	Write Protection Block 0
   734                           ;	WRT0 = OFF, Block 0 (000800-001FFFh) not write-protected
   735                           ;	Write Protection Block 1
   736                           ;	WRT1 = OFF, Block 1 (002000-003FFFh) not write-protected
   737                           ;	Write Protection Block 2
   738                           ;	WRT2 = OFF, Block 2 (004000-005FFFh) not write-protected
   739                           ;	Write Protection Block 3
   740                           ;	WRT3 = OFF, Block 3 (006000-007FFFh) not write-protected
   741   30000A                     	org	3145738
   742   30000A  0F                 	db	15
   743                           
   744                           ;Config register CONFIG6H @ 0x30000B
   745                           ;	Configuration Register Write Protection bit
   746                           ;	WRTC = OFF, Configuration registers (300000-3000FFh) not write-protected
   747                           ;	Boot Block Write Protection bit
   748                           ;	WRTB = OFF, Boot Block (000000-0007FFh) not write-protected
   749                           ;	Data EEPROM Write Protection bit
   750                           ;	WRTD = OFF, Data EEPROM not write-protected
   751   30000B                     	org	3145739
   752   30000B  E0                 	db	224
   753                           
   754                           ;Config register CONFIG7L @ 0x30000C
   755                           ;	Table Read Protection Block 0
   756                           ;	EBTR0 = OFF, Block 0 (000800-001FFFh) not protected from table reads executed in other
      +                           blocks
   757                           ;	Table Read Protection Block 1
   758                           ;	EBTR1 = OFF, Block 1 (002000-003FFFh) not protected from table reads executed in other
      +                           blocks
   759                           ;	Table Read Protection Block 2
   760                           ;	EBTR2 = OFF, Block 2 (004000-005FFFh) not protected from table reads executed in other
      +                           blocks
   761                           ;	Table Read Protection Block 3
   762                           ;	EBTR3 = OFF, Block 3 (006000-007FFFh) not protected from table reads executed in other
      +                           blocks
   763   30000C                     	org	3145740
   764   30000C  0F                 	db	15
   765                           
   766                           ;Config register CONFIG7H @ 0x30000D
   767                           ;	Boot Block Table Read Protection bit
   768                           ;	EBTRB = OFF, Boot Block (000000-0007FFh) not protected from table reads executed in ot
      +                          her blocks
   769   30000D                     	org	3145741
   770   30000D  40                 	db	64
   771                           tosu	equ	0xFFF
   772                           tosh	equ	0xFFE
   773                           tosl	equ	0xFFD
   774                           stkptr	equ	0xFFC
   775                           pclatu	equ	0xFFB
   776                           pclath	equ	0xFFA
   777                           pcl	equ	0xFF9
   778                           tblptru	equ	0xFF8
   779                           tblptrh	equ	0xFF7
   780                           tblptrl	equ	0xFF6
   781                           tablat	equ	0xFF5
   782                           prodh	equ	0xFF4
   783                           prodl	equ	0xFF3
   784                           indf0	equ	0xFEF
   785                           postinc0	equ	0xFEE
   786                           postdec0	equ	0xFED
   787                           preinc0	equ	0xFEC
   788                           plusw0	equ	0xFEB
   789                           fsr0h	equ	0xFEA
   790                           fsr0l	equ	0xFE9
   791                           wreg	equ	0xFE8
   792                           indf1	equ	0xFE7
   793                           postinc1	equ	0xFE6
   794                           postdec1	equ	0xFE5
   795                           preinc1	equ	0xFE4
   796                           plusw1	equ	0xFE3
   797                           fsr1h	equ	0xFE2
   798                           fsr1l	equ	0xFE1
   799                           bsr	equ	0xFE0
   800                           indf2	equ	0xFDF
   801                           postinc2	equ	0xFDE
   802                           postdec2	equ	0xFDD
   803                           preinc2	equ	0xFDC
   804                           plusw2	equ	0xFDB
   805                           fsr2h	equ	0xFDA
   806                           fsr2l	equ	0xFD9
   807                           status	equ	0xFD8

Data Sizes:
    Strings     0
    Constant    0
    Data        2
    BSS         52
    Persistent  0
    Stack       0

Auto Spaces:
    Space          Size  Autos    Used
    COMRAM           94     14      68
    BANK0           160      0       0
    BANK1           256      0       0
    BANK2           256      0       0
    BANK3           256      0       0
    BANK4           256      0       0
    BANK5           256      0       0

Pointer List with Targets:

    None.

Critical Paths under _main in COMRAM

    _main->_UART_Init
    _UART_Init->___fltol

Critical Paths under _isr in COMRAM

    None.

Critical Paths under _main in BANK0

    None.

Critical Paths under _isr in BANK0

    None.

Critical Paths under _main in BANK1

    None.

Critical Paths under _isr in BANK1

    None.

Critical Paths under _main in BANK2

    None.

Critical Paths under _isr in BANK2

    None.

Critical Paths under _main in BANK3

    None.

Critical Paths under _isr in BANK3

    None.

Critical Paths under _main in BANK4

    None.

Critical Paths under _isr in BANK4

    None.

Critical Paths under _main in BANK5

    None.

Critical Paths under _isr in BANK5

    None.

Call Graph Tables:

 ---------------------------------------------------------------------------------
 (Depth) Function   	        Calls       Base Space   Used Autos Params    Refs
 ---------------------------------------------------------------------------------
 (0) _main                                                 0     0      0     328
                          _I2C2_Init
                          _UART_Init
 ---------------------------------------------------------------------------------
 (1) _UART_Init                                            4     4      0     328
                                             10 COMRAM     4     4      0
                            ___fltol
 ---------------------------------------------------------------------------------
 (2) ___fltol                                             10     6      4     305
                                              0 COMRAM    10     6      4
 ---------------------------------------------------------------------------------
 (1) _I2C2_Init                                            0     0      0       0
 ---------------------------------------------------------------------------------
 Estimated maximum stack depth 2
 ---------------------------------------------------------------------------------
 (Depth) Function   	        Calls       Base Space   Used Autos Params    Refs
 ---------------------------------------------------------------------------------
 (3) _isr                                                  1     1      0       0
 ---------------------------------------------------------------------------------
 Estimated maximum stack depth 3
 ---------------------------------------------------------------------------------

 Call Graph Graphs:

 _main (ROOT)
   _I2C2_Init
   _UART_Init
     ___fltol

 _isr (ROOT)

 Address spaces:
Name               Size   Autos  Total    Cost      Usage
BIGRAM             5FF      0       0      25        0.0%
EEDATA             100      0       0       0        0.0%
BITBANK5           100      0       0      13        0.0%
BANK5              100      0       0      14        0.0%
BITBANK4           100      0       0      11        0.0%
BANK4              100      0       0      12        0.0%
BITBANK3           100      0       0       9        0.0%
BANK3              100      0       0      10        0.0%
BITBANK2           100      0       0       7        0.0%
BANK2              100      0       0       8        0.0%
BITBANK1           100      0       0       5        0.0%
BANK1              100      0       0       6        0.0%
BITBANK0            A0      0       0       3        0.0%
BANK0               A0      0       0       4        0.0%
BITCOMRAM           5E      0       0       0        0.0%
COMRAM              5E      E      44       1       72.3%
BITBIGSFRlh         59      0       0      22        0.0%
BITBIGSFRhhlh       1E      0       0      16        0.0%
BITBIGSFRhhlll      15      0       0      18        0.0%
BITBIGSFRhhh         D      0       0      15        0.0%
BITBIGSFRhlhl        C      0       0      19        0.0%
BITBIGSFRhhllh       9      0       0      17        0.0%
BITBIGSFRhlll        6      0       0      21        0.0%
BITBIGSFRll          2      0       0      23        0.0%
BITBIGSFRhllh        1      0       0      20        0.0%
BIGSFR               0      0       0     200        0.0%
BITSFR_1             0      0       0     200        0.0%
SFR_1                0      0       0     200        0.0%
BITSFR               0      0       0     200        0.0%
SFR                  0      0       0     200        0.0%
STACK                0      0       0       2        0.0%
NULL                 0      0       0       0        0.0%
ABS                  0      0      44      24        0.0%
DATA                 0      0      44      26        0.0%
CODE                 0      0       0       0        0.0%


Microchip Technology PIC18 Macro Assembler V2.46 build 20240104201356 
Symbol Table                                                                                   Mon Apr 08 19:51:58 2024

                     l35 0746                       l57 0786                       l58 0786  
                     l79 07A4                      l421 0706                      l901 0602  
                    l911 0658                      l903 0618                      l913 0668  
                    l923 0692                      l915 066C                      l907 062C  
                    l941 06F6                      l933 06BA                      l925 069C  
                    l917 067A                      l909 0656                      l935 06C6  
                    l927 06A6                      l951 0738                      l857 078E  
                    l937 06D6                      l953 073A                      l945 0708  
                    l961 0776                      l859 0798                      l939 06E6  
                    l955 073C                      l947 0710                      l963 077E  
                    l957 073E                      l949 0720                      l965 0782  
                    l959 0742                      u200 064C                      u210 067A  
                    u211 0676                      u220 068E                      u221 068A  
                    u205 0642                      u230 06B6                      u231 06B2  
                    u240 06D6                      u241 06D2                      u250 06E6  
                    u251 06E2                      u190 0618                      u191 0614  
                    _isr 0008                      wreg 0FE8             ___fltol@exp1 003E  
                   ?_isr 0035                     i2l52 0046                     _main 0776  
                   btemp 0045                     start 004A             ___param_bank 0000  
                  ??_isr 0035            ___fltol@sign1 003D        __end_of_I2C2_Init 07A6  
                  ?_main 0035          __end_of___fltol 0708                    i2l871 0020  
                  i2l873 0026                    i2l865 000A                    i2l875 0034  
                  i2l867 000A                    i2l869 0018                    _TXREG 0FAD  
           _user_command 0001                    tablat 0FF5                    ttemp5 0046  
                  ttemp6 0049                    ttemp7 004D                    status 0FD8  
                  wtemp8 0046          __initialization 0748             __end_of_main 078E  
                 ??_main 0043            __activetblptr 0000                   _RCREG1 0FAE  
                 _RCSTA1 0FAB                   _OSCCON 0FD3                   _SPBRG1 0FAF  
                 i2u9_40 0018                   i2u9_41 0014                   _TRISC6 7CA6  
                 _TRISC7 7CA7                   _TXSTA1 0FAC        __end_of_UART_Init 0748  
              ??___fltol 0039                   clear_0 0766                   isa$std 0001  
           __pdataCOMRAM 0043             __mediumconst 0000                   tblptrh 0FF7  
                 tblptrl 0FF6                   tblptru 0FF8               __accesstop 0060  
__end_of__initialization 076C            ___rparam_used 0001               ___fltol@f1 0035  
         __pcstackCOMRAM 0035                _I2C2_Init 078E                  i2u10_40 0034  
                i2u10_41 0030                  i2u11_40 0046                  i2u11_41 0042  
                _OSCTUNE 0F9B                  _SSP1ADD 0FC8                  _SSP1BUF 0FC9  
                __Hparam 0000                  __Lparam 0000                  ___fltol 0602  
           __psmallconst 0600                  __pcinit 0748                  __ramtop 0600  
                __ptext0 0776                  __ptext1 0708                  __ptext2 0602  
                __ptext3 078E               ?_I2C2_Init 0035                  _timeout 0043  
   end_of_initialization 076C                  postinc0 0FEE                _UART_Init 0708  
              _TRISCbits 0F94               ?_UART_Init 0035            __pidataCOMRAM 07A6  
    start_initialization 0748              ??_I2C2_Init 0035              __end_of_isr 004A  
            __pbssCOMRAM 0001                __pintcode 0008            UART_Init@temp 003F  
               ?___fltol 0035              ??_UART_Init 003F              __smallconst 0600  
               _PIE1bits 0F9D                 _PIR1bits 0F9E                 _SSP1CON1 0FC6  
               _SSP1STAT 0FC7                 __Hrparam 0000                 __Lrparam 0000  
             _ANSELCbits 0F3A             _SSP1CON2bits 0FC5                 isa$xinst 0000  
               int$flags 0045               _INTCONbits 0FF2                 intlevel2 0000  
