

Microchip MPLAB XC8 Assembler V2.46 build 20240104201356 
                                                                                               Fri Apr 05 04:05:58 2024

Microchip MPLAB XC8 C Compiler v2.46 (Free license) build 20240104201356 Og1 
     1                           	processor	18F25K22
     2                           	fnconf	rparam,??,?,0
     3                           	pagewidth 120
     4                           	opt	flic
     5                           	psect	idataCOMRAM,global,class=CODE,delta=1,noexec
     6                           	psect	cinit,global,reloc=2,class=CODE,delta=1
     7                           	psect	bssCOMRAM,global,class=COMRAM,space=1,delta=1,lowdata,noexec
     8                           	psect	dataCOMRAM,global,class=COMRAM,space=1,delta=1,lowdata,noexec
     9                           	psect	cstackCOMRAM,global,class=COMRAM,space=1,delta=1,lowdata,noexec
    10                           	psect	text0,global,reloc=2,class=CODE,delta=1
    11                           	psect	text1,global,reloc=2,class=CODE,delta=1
    12                           	psect	text2,global,reloc=2,class=CODE,delta=1
    13                           	psect	text3,global,reloc=2,class=CODE,delta=1,group=1
    14                           	psect	text4,global,reloc=2,class=CODE,delta=1
    15                           	psect	text5,global,reloc=2,class=CODE,delta=1
    16                           	psect	text6,global,reloc=2,class=CODE,delta=1
    17                           	psect	text7,global,reloc=2,class=CODE,delta=1
    18                           	psect	text8,global,reloc=2,class=CODE,delta=1
    19                           	psect	intcode,global,reloc=2,class=CODE,delta=1
    20                           	psect	text10,global,reloc=2,class=CODE,delta=1
    21                           	psect	smallconst,global,reloc=2,class=SMALLCONST,delta=1,noexec
    22                           	psect	intsave_regs,global,class=BIGRAM,space=1,delta=1,noexec
    23                           	psect	rparam,global,class=COMRAM,space=1,delta=1,noexec
    24                           	psect	temp,global,ovrld,common,class=COMRAM,space=1,delta=1,lowdata
    25                           	psect	config,global,abs,ovrld,class=CONFIG,space=4,delta=1,noexec
    26   000000                     
    27                           ; Generated 12/10/2023 GMT
    28                           ; 
    29                           ; Copyright © 2023, Microchip Technology Inc. and its subsidiaries ("Microchip")
    30                           ; All rights reserved.
    31                           ; 
    32                           ; This software is developed by Microchip Technology Inc. and its subsidiaries ("Microch
      +                          ip").
    33                           ; 
    34                           ; Redistribution and use in source and binary forms, with or without modification, are
    35                           ; permitted provided that the following conditions are met:
    36                           ; 
    37                           ;     1. Redistributions of source code must retain the above copyright notice, this lis
      +                          t of
    38                           ;        conditions and the following disclaimer.
    39                           ; 
    40                           ;     2. Redistributions in binary form must reproduce the above copyright notice, this 
      +                          list
    41                           ;        of conditions and the following disclaimer in the documentation and/or other
    42                           ;        materials provided with the distribution. Publication is not required when
    43                           ;        this file is used in an embedded application.
    44                           ; 
    45                           ;     3. Microchip's name may not be used to endorse or promote products derived from th
      +                          is
    46                           ;        software without specific prior written permission.
    47                           ; 
    48                           ; THIS SOFTWARE IS PROVIDED BY MICROCHIP "AS IS" AND ANY EXPRESS OR IMPLIED WARRANTIES,
    49                           ; INCLUDING, BUT NOT LIMITED TO, THE IMPLIED WARRANTIES OF MERCHANTABILITY AND FITNESS F
      +                          OR
    50                           ; PURPOSE ARE DISCLAIMED.  IN NO EVENT SHALL MICROCHIP BE LIABLE FOR ANY DIRECT, INDIREC
      +                          T,
    51                           ; INCIDENTAL, SPECIAL, EXEMPLARY, OR CONSEQUENTIAL DAMAGES (INCLUDING BUT NOT LIMITED TO
    52                           ; PROCUREMENT OF SUBSTITUTE GOODS OR SERVICES; LOSS OF USE, DATA OR PROFITS; OR BUSINESS
    53                           ; INTERRUPTION) HOWSOEVER CAUSED AND ON ANY THEORY OF LIABILITY, WHETHER IN CONTRACT, ST
      +                          RICT
    54                           ; LIABILITY, OR TORT (INCLUDING NEGLIGENCE OR OTHERWISE) ARISING IN ANY WAY OUT OF THE U
      +                          SE OF
    55                           ; THIS SOFTWARE, EVEN IF ADVISED OF THE POSSIBILITY OF SUCH DAMAGE.
    56                           ; 
    57                           ; 
    58                           ; Code-generator required, PIC18F25K22 Definitions
    59                           ; 
    60                           ; SFR Addresses
    61   000000                     
    62                           	psect	idataCOMRAM
    63   000892                     __pidataCOMRAM:
    64                           	callstack 0
    65                           
    66                           ;initializer for _check_ack
    67   000892  01                 	db	1
    68   000000                     _RCREG1	set	4014
    69   000000                     _TXREG	set	4013
    70   000000                     _TRISCbits	set	3988
    71   000000                     _TRISC7	set	31911
    72   000000                     _ANSELCbits	set	3898
    73   000000                     _TRISC6	set	31910
    74   000000                     _OSCTUNE	set	3995
    75   000000                     _PIE1bits	set	3997
    76   000000                     _SPBRG1	set	4015
    77   000000                     _SSP1CON2bits	set	4037
    78   000000                     _SSP1CON1	set	4038
    79   000000                     _SSP1STAT	set	4039
    80   000000                     _OSCCON	set	4051
    81   000000                     _INTCONbits	set	4082
    82   000000                     _PIR1bits	set	3998
    83   000000                     _RCSTA1	set	4011
    84   000000                     _TXSTA1	set	4012
    85   000000                     _SSP1BUF	set	4041
    86   000000                     _SSP1ADD	set	4040
    87                           
    88                           ; #config settings
    89                           
    90                           	psect	cinit
    91   0007F0                     __pcinit:
    92                           	callstack 0
    93   0007F0                     start_initialization:
    94                           	callstack 0
    95   0007F0                     __initialization:
    96                           	callstack 0
    97                           
    98                           ; Initialize objects allocated to COMRAM (1 bytes)
    99                           ; load TBLPTR registers with __pidataCOMRAM
   100   0007F0  0E92               	movlw	low __pidataCOMRAM
   101   0007F2  6EF6               	movwf	tblptrl,c
   102   0007F4  0E08               	movlw	high __pidataCOMRAM
   103   0007F6  6EF7               	movwf	tblptrh,c
   104   0007F8  0E00               	movlw	low (__pidataCOMRAM shr (0+16))
   105   0007FA  6EF8               	movwf	tblptru,c
   106   0007FC  0009               	tblrd		*+	;fetch initializer
   107   0007FE  CFF5 F013          	movff	tablat,__pdataCOMRAM
   108                           
   109                           ; Clear objects allocated to COMRAM (2 bytes)
   110   000802  6A12               	clrf	(__pbssCOMRAM+1)& (0+255),c
   111   000804  6A11               	clrf	__pbssCOMRAM& (0+255),c
   112   000806                     end_of_initialization:
   113                           	callstack 0
   114   000806                     __end_of__initialization:
   115                           	callstack 0
   116   000806  9014               	bcf	int$flags,0,c	;clear compiler interrupt flag (level 1)
   117   000808  9214               	bcf	int$flags,1,c	;clear compiler interrupt flag (level 2)
   118   00080A  0100               	movlb	0
   119   00080C  EF84  F003         	goto	_main	;jump to C main() function
   120                           
   121                           	psect	bssCOMRAM
   122   000011                     __pbssCOMRAM:
   123                           	callstack 0
   124   000011                     _eeprom_query_flag:
   125                           	callstack 0
   126   000011                     	ds	1
   127   000012                     _eeprom_data:
   128                           	callstack 0
   129   000012                     	ds	1
   130                           
   131                           	psect	dataCOMRAM
   132   000013                     __pdataCOMRAM:
   133                           	callstack 0
   134   000013                     _check_ack:
   135                           	callstack 0
   136   000013                     	ds	1
   137                           
   138                           	psect	cstackCOMRAM
   139   000001                     __pcstackCOMRAM:
   140                           	callstack 0
   141   000001                     i2UART_TransmitChar@data:
   142                           	callstack 0
   143                           
   144                           ; 1 bytes @ 0x0
   145   000001                     	ds	1
   146   000002                     isr@receive_data:
   147                           	callstack 0
   148                           
   149                           ; 1 bytes @ 0x1
   150   000002                     	ds	1
   151   000003                     ?___fltol:
   152                           	callstack 0
   153   000003                     UART_TransmitChar@data:
   154                           	callstack 0
   155   000003                     I2C2_Send@BYTE:
   156                           	callstack 0
   157   000003                     ___fltol@f1:
   158                           	callstack 0
   159                           
   160                           ; 4 bytes @ 0x2
   161   000003                     	ds	4
   162   000007                     ??___fltol:
   163                           
   164                           ; 1 bytes @ 0x6
   165   000007                     	ds	4
   166   00000B                     ___fltol@sign1:
   167                           	callstack 0
   168                           
   169                           ; 1 bytes @ 0xA
   170   00000B                     	ds	1
   171   00000C                     ___fltol@exp1:
   172                           	callstack 0
   173                           
   174                           ; 1 bytes @ 0xB
   175   00000C                     	ds	1
   176   00000D                     UART_Init@temp:
   177                           	callstack 0
   178                           
   179                           ; 4 bytes @ 0xC
   180   00000D                     	ds	4
   181   000011                     
   182                           ; 1 bytes @ 0x10
   183 ;;
   184 ;;Main: autosize = 0, tempsize = 0, incstack = 0, save=0
   185 ;;
   186 ;; *************** function _main *****************
   187 ;; Defined at:
   188 ;;		line 93 in file "main.c"
   189 ;; Parameters:    Size  Location     Type
   190 ;;		None
   191 ;; Auto vars:     Size  Location     Type
   192 ;;		None
   193 ;; Return value:  Size  Location     Type
   194 ;;                  1    wreg      void 
   195 ;; Registers used:
   196 ;;		wreg, status,2, status,0, cstack
   197 ;; Tracked objects:
   198 ;;		On entry : 0/0
   199 ;;		On exit  : 0/0
   200 ;;		Unchanged: 0/0
   201 ;; Data sizes:     COMRAM   BANK0   BANK1   BANK2   BANK3   BANK4   BANK5
   202 ;;      Params:         0       0       0       0       0       0       0
   203 ;;      Locals:         0       0       0       0       0       0       0
   204 ;;      Temps:          0       0       0       0       0       0       0
   205 ;;      Totals:         0       0       0       0       0       0       0
   206 ;;Total ram usage:        0 bytes
   207 ;; Hardware stack levels required when called: 4
   208 ;; This function calls:
   209 ;;		_I2C2_Init
   210 ;;		_I2C2_Read
   211 ;;		_I2C2_Send
   212 ;;		_I2C2_Start
   213 ;;		_I2C2_Stop
   214 ;;		_UART_Init
   215 ;;		_UART_TransmitChar
   216 ;; This function is called by:
   217 ;;		Startup code after reset
   218 ;; This function uses a non-reentrant model
   219 ;;
   220                           
   221                           	psect	text0
   222   000708                     __ptext0:
   223                           	callstack 0
   224   000708                     _main:
   225                           	callstack 27
   226   000708                     
   227                           ;main.c: 95:     OSCCON = 0x70;
   228   000708  0E70               	movlw	112
   229   00070A  6ED3               	movwf	211,c	;volatile
   230                           
   231                           ;main.c: 96:     OSCTUNE = 0xC0;
   232   00070C  0EC0               	movlw	192
   233   00070E  6E9B               	movwf	155,c	;volatile
   234   000710                     
   235                           ;main.c: 98:     UART_Init();
   236   000710  ECC3  F003         	call	_UART_Init	;wreg free
   237   000714                     
   238                           ;main.c: 101:     I2C2_Init();
   239   000714  EC08  F004         	call	_I2C2_Init	;wreg free
   240   000718                     
   241                           ;main.c: 103:     I2C2_Start();
   242   000718  EC3F  F004         	call	_I2C2_Start	;wreg free
   243   00071C                     
   244                           ;main.c: 104:     check_ack = I2C2_Send(0x50 << 1);
   245   00071C  0EA0               	movlw	160
   246   00071E  ECE3  F003         	call	_I2C2_Send
   247   000722  6E13               	movwf	_check_ack^0,c
   248   000724                     
   249                           ;main.c: 105:     I2C2_Send(0x00);
   250   000724  0E00               	movlw	0
   251   000726  ECE3  F003         	call	_I2C2_Send
   252   00072A                     
   253                           ;main.c: 106:     I2C2_Send(0x01);
   254   00072A  0E01               	movlw	1
   255   00072C  ECE3  F003         	call	_I2C2_Send
   256   000730                     
   257                           ;main.c: 107:     I2C2_Send(0x0A);
   258   000730  0E0A               	movlw	10
   259   000732  ECE3  F003         	call	_I2C2_Send
   260   000736                     
   261                           ;main.c: 108:     I2C2_Stop();
   262   000736  EC35  F004         	call	_I2C2_Stop	;wreg free
   263   00073A                     l1044:
   264                           
   265                           ;main.c: 111:      if(eeprom_query_flag){
   266   00073A  5011               	movf	_eeprom_query_flag^0,w,c
   267   00073C  B4D8               	btfsc	status,2,c
   268   00073E  EFA3  F003         	goto	u331
   269   000742  EFA5  F003         	goto	u330
   270   000746                     u331:
   271   000746  EF9D  F003         	goto	l1044
   272   00074A                     u330:
   273   00074A                     
   274                           ;main.c: 115:     I2C2_Start();
   275   00074A  EC3F  F004         	call	_I2C2_Start	;wreg free
   276   00074E                     
   277                           ;main.c: 116:     I2C2_Send(0x50 << 1);
   278   00074E  0EA0               	movlw	160
   279   000750  ECE3  F003         	call	_I2C2_Send
   280   000754                     
   281                           ;main.c: 117:     I2C2_Send(0x00);
   282   000754  0E00               	movlw	0
   283   000756  ECE3  F003         	call	_I2C2_Send
   284   00075A                     
   285                           ;main.c: 118:     I2C2_Send(0x01);
   286   00075A  0E01               	movlw	1
   287   00075C  ECE3  F003         	call	_I2C2_Send
   288   000760                     
   289                           ;main.c: 120:     I2C2_Start();
   290   000760  EC3F  F004         	call	_I2C2_Start	;wreg free
   291                           
   292                           ;main.c: 121:     I2C2_Send((0x50 << 1) | 0x01);
   293   000764  0EA1               	movlw	161
   294   000766  ECE3  F003         	call	_I2C2_Send
   295   00076A                     
   296                           ;main.c: 122:     eeprom_data = I2C2_Read();
   297   00076A  EC1F  F004         	call	_I2C2_Read	;wreg free
   298   00076E  6E12               	movwf	_eeprom_data^0,c
   299   000770                     
   300                           ;main.c: 123:     I2C2_Stop();
   301   000770  EC35  F004         	call	_I2C2_Stop	;wreg free
   302   000774                     
   303                           ;main.c: 125:     UART_TransmitChar(eeprom_data);
   304   000774  5012               	movf	_eeprom_data^0,w,c
   305   000776  EC14  F004         	call	_UART_TransmitChar
   306   00077A                     
   307                           ;main.c: 126:     eeprom_query_flag = 0x00;
   308   00077A  0E00               	movlw	0
   309   00077C  6E11               	movwf	_eeprom_query_flag^0,c
   310   00077E  EF9D  F003         	goto	l1044
   311   000782  EF2A  F000         	goto	start
   312   000786                     __end_of_main:
   313                           	callstack 0
   314                           
   315 ;; *************** function _UART_TransmitChar *****************
   316 ;; Defined at:
   317 ;;		line 53 in file "main.c"
   318 ;; Parameters:    Size  Location     Type
   319 ;;  data            1    wreg     unsigned char 
   320 ;; Auto vars:     Size  Location     Type
   321 ;;  data            1    2[COMRAM] unsigned char 
   322 ;; Return value:  Size  Location     Type
   323 ;;                  1    wreg      void 
   324 ;; Registers used:
   325 ;;		wreg
   326 ;; Tracked objects:
   327 ;;		On entry : 0/0
   328 ;;		On exit  : 0/0
   329 ;;		Unchanged: 0/0
   330 ;; Data sizes:     COMRAM   BANK0   BANK1   BANK2   BANK3   BANK4   BANK5
   331 ;;      Params:         0       0       0       0       0       0       0
   332 ;;      Locals:         1       0       0       0       0       0       0
   333 ;;      Temps:          0       0       0       0       0       0       0
   334 ;;      Totals:         1       0       0       0       0       0       0
   335 ;;Total ram usage:        1 bytes
   336 ;; Hardware stack levels used: 1
   337 ;; Hardware stack levels required when called: 2
   338 ;; This function calls:
   339 ;;		Nothing
   340 ;; This function is called by:
   341 ;;		_main
   342 ;; This function uses a non-reentrant model
   343 ;;
   344                           
   345                           	psect	text1
   346   000828                     __ptext1:
   347                           	callstack 0
   348   000828                     _UART_TransmitChar:
   349                           	callstack 28
   350                           
   351                           ;incstack = 0
   352                           ;UART_TransmitChar@data stored from wreg
   353   000828  6E03               	movwf	UART_TransmitChar@data^0,c
   354   00082A                     l48:
   355   00082A  A89E               	btfss	158,4,c	;volatile
   356   00082C  EF1A  F004         	goto	u81
   357   000830  EF1C  F004         	goto	u80
   358   000834                     u81:
   359   000834  EF15  F004         	goto	l48
   360   000838                     u80:
   361   000838                     
   362                           ;main.c: 56:     TXREG = data;
   363   000838  C003  FFAD         	movff	UART_TransmitChar@data,4013	;volatile
   364   00083C  0012               	return		;funcret
   365   00083E                     __end_of_UART_TransmitChar:
   366                           	callstack 0
   367                           
   368 ;; *************** function _UART_Init *****************
   369 ;; Defined at:
   370 ;;		line 26 in file "main.c"
   371 ;; Parameters:    Size  Location     Type
   372 ;;		None
   373 ;; Auto vars:     Size  Location     Type
   374 ;;  temp            4   12[COMRAM] float 
   375 ;; Return value:  Size  Location     Type
   376 ;;                  1    wreg      void 
   377 ;; Registers used:
   378 ;;		wreg, status,2, status,0, cstack
   379 ;; Tracked objects:
   380 ;;		On entry : 0/0
   381 ;;		On exit  : 0/0
   382 ;;		Unchanged: 0/0
   383 ;; Data sizes:     COMRAM   BANK0   BANK1   BANK2   BANK3   BANK4   BANK5
   384 ;;      Params:         0       0       0       0       0       0       0
   385 ;;      Locals:         4       0       0       0       0       0       0
   386 ;;      Temps:          0       0       0       0       0       0       0
   387 ;;      Totals:         4       0       0       0       0       0       0
   388 ;;Total ram usage:        4 bytes
   389 ;; Hardware stack levels used: 1
   390 ;; Hardware stack levels required when called: 3
   391 ;; This function calls:
   392 ;;		___fltol
   393 ;; This function is called by:
   394 ;;		_main
   395 ;; This function uses a non-reentrant model
   396 ;;
   397                           
   398                           	psect	text2
   399   000786                     __ptext2:
   400                           	callstack 0
   401   000786                     _UART_Init:
   402                           	callstack 27
   403   000786                     
   404                           ;main.c: 28:     float temp;;main.c: 30:     TRISC6 = 0;
   405   000786  9C94               	bcf	3988,6,c	;volatile
   406                           
   407                           ;main.c: 31:     TRISC7 = 1;
   408   000788  8E94               	bsf	3988,7,c	;volatile
   409                           
   410                           ;main.c: 32:     ANSELCbits.ANSC7 = 0;
   411   00078A  010F               	movlb	15	; () banked
   412   00078C  9F3A               	bcf	58,7,b	;volatile
   413   00078E                     
   414                           ; BSR set to: 15
   415                           ;main.c: 35:     temp = (((float)(64000000 / 64) / (float)9600) - 1);
   416   00078E  0E55               	movlw	85
   417   000790  6E0D               	movwf	UART_Init@temp^0,c
   418   000792  0E55               	movlw	85
   419   000794  6E0E               	movwf	(UART_Init@temp+1)^0,c
   420   000796  0ECE               	movlw	206
   421   000798  6E0F               	movwf	(UART_Init@temp+2)^0,c
   422   00079A  0E42               	movlw	66
   423   00079C  6E10               	movwf	(UART_Init@temp+3)^0,c
   424   00079E                     
   425                           ; BSR set to: 15
   426                           ;main.c: 36:     SPBRG1 = (int)temp;
   427   00079E  C00D  F003         	movff	UART_Init@temp,___fltol@f1
   428   0007A2  C00E  F004         	movff	UART_Init@temp+1,___fltol@f1+1
   429   0007A6  C00F  F005         	movff	UART_Init@temp+2,___fltol@f1+2
   430   0007AA  C010  F006         	movff	UART_Init@temp+3,___fltol@f1+3
   431   0007AE  EC01  F003         	call	___fltol	;wreg free
   432   0007B2  5003               	movf	?___fltol^0,w,c
   433   0007B4  6EAF               	movwf	175,c	;volatile
   434   0007B6                     
   435                           ;main.c: 38:     INTCONbits.GIE = 1;
   436   0007B6  8EF2               	bsf	242,7,c	;volatile
   437   0007B8                     
   438                           ;main.c: 39:     INTCONbits.PEIE = 1;
   439   0007B8  8CF2               	bsf	242,6,c	;volatile
   440   0007BA                     
   441                           ;main.c: 40:     PIE1bits.RC1IE = 1;
   442   0007BA  8A9D               	bsf	157,5,c	;volatile
   443   0007BC                     
   444                           ;main.c: 43:     TXSTA1 = 0x20;
   445   0007BC  0E20               	movlw	32
   446   0007BE  6EAC               	movwf	172,c	;volatile
   447   0007C0                     
   448                           ;main.c: 44:     RCSTA1 = 0x90;
   449   0007C0  0E90               	movlw	144
   450   0007C2  6EAB               	movwf	171,c	;volatile
   451   0007C4  0012               	return		;funcret
   452   0007C6                     __end_of_UART_Init:
   453                           	callstack 0
   454                           
   455 ;; *************** function ___fltol *****************
   456 ;; Defined at:
   457 ;;		line 43 in file "C:\Program Files\Microchip\xc8\v2.46\pic\sources\c99\common\fltol.c"
   458 ;; Parameters:    Size  Location     Type
   459 ;;  f1              4    2[COMRAM] void 
   460 ;; Auto vars:     Size  Location     Type
   461 ;;  exp1            1   11[COMRAM] unsigned char 
   462 ;;  sign1           1   10[COMRAM] unsigned char 
   463 ;; Return value:  Size  Location     Type
   464 ;;                  4    2[COMRAM] long 
   465 ;; Registers used:
   466 ;;		wreg, status,2, status,0
   467 ;; Tracked objects:
   468 ;;		On entry : 0/0
   469 ;;		On exit  : 0/0
   470 ;;		Unchanged: 0/0
   471 ;; Data sizes:     COMRAM   BANK0   BANK1   BANK2   BANK3   BANK4   BANK5
   472 ;;      Params:         4       0       0       0       0       0       0
   473 ;;      Locals:         2       0       0       0       0       0       0
   474 ;;      Temps:          4       0       0       0       0       0       0
   475 ;;      Totals:        10       0       0       0       0       0       0
   476 ;;Total ram usage:       10 bytes
   477 ;; Hardware stack levels used: 1
   478 ;; Hardware stack levels required when called: 2
   479 ;; This function calls:
   480 ;;		Nothing
   481 ;; This function is called by:
   482 ;;		_UART_Init
   483 ;; This function uses a non-reentrant model
   484 ;;
   485                           
   486                           	psect	text3
   487   000602                     __ptext3:
   488                           	callstack 0
   489   000602                     ___fltol:
   490                           	callstack 27
   491   000602  3405               	rlcf	(___fltol@f1+2)^0,w,c
   492   000604  3406               	rlcf	(___fltol@f1+3)^0,w,c
   493   000606  6E0C               	movwf	___fltol@exp1^0,c
   494   000608  500C               	movf	___fltol@exp1^0,w,c
   495   00060A  A4D8               	btfss	status,2,c
   496   00060C  EF0A  F003         	goto	u221
   497   000610  EF0C  F003         	goto	u220
   498   000614                     u221:
   499   000614  EF16  F003         	goto	l954
   500   000618                     u220:
   501   000618                     l950:
   502   000618  0E00               	movlw	0
   503   00061A  6E03               	movwf	?___fltol^0,c
   504   00061C  0E00               	movlw	0
   505   00061E  6E04               	movwf	(?___fltol+1)^0,c
   506   000620  0E00               	movlw	0
   507   000622  6E05               	movwf	(?___fltol+2)^0,c
   508   000624  0E00               	movlw	0
   509   000626  6E06               	movwf	(?___fltol+3)^0,c
   510   000628  EF83  F003         	goto	l430
   511   00062C                     l954:
   512   00062C  C003  F007         	movff	___fltol@f1,??___fltol
   513   000630  C004  F008         	movff	___fltol@f1+1,??___fltol+1
   514   000634  C005  F009         	movff	___fltol@f1+2,??___fltol+2
   515   000638  C006  F00A         	movff	___fltol@f1+3,??___fltol+3
   516   00063C  0E20               	movlw	32
   517   00063E  EF26  F003         	goto	u230
   518   000642                     u235:
   519   000642  90D8               	bcf	status,0,c
   520   000644  320A               	rrcf	(??___fltol+3)^0,f,c
   521   000646  3209               	rrcf	(??___fltol+2)^0,f,c
   522   000648  3208               	rrcf	(??___fltol+1)^0,f,c
   523   00064A  3207               	rrcf	??___fltol^0,f,c
   524   00064C                     u230:
   525   00064C  2EE8               	decfsz	wreg,f,c
   526   00064E  EF21  F003         	goto	u235
   527   000652  5007               	movf	??___fltol^0,w,c
   528   000654  6E0B               	movwf	___fltol@sign1^0,c
   529   000656  8E05               	bsf	(___fltol@f1+2)^0,7,c
   530   000658  0EFF               	movlw	255
   531   00065A  1603               	andwf	___fltol@f1^0,f,c
   532   00065C  0EFF               	movlw	255
   533   00065E  1604               	andwf	(___fltol@f1+1)^0,f,c
   534   000660  0EFF               	movlw	255
   535   000662  1605               	andwf	(___fltol@f1+2)^0,f,c
   536   000664  0E00               	movlw	0
   537   000666  1606               	andwf	(___fltol@f1+3)^0,f,c
   538   000668  0E96               	movlw	150
   539   00066A  5E0C               	subwf	___fltol@exp1^0,f,c
   540   00066C  BE0C               	btfsc	___fltol@exp1^0,7,c
   541   00066E  EF3D  F003         	goto	u240
   542   000672  EF3B  F003         	goto	u241
   543   000676                     u241:
   544   000676  EF53  F003         	goto	l974
   545   00067A                     u240:
   546   00067A  500C               	movf	___fltol@exp1^0,w,c
   547   00067C  0A80               	xorlw	128
   548   00067E  0F97               	addlw	151
   549   000680  B0D8               	btfsc	status,0,c
   550   000682  EF45  F003         	goto	u251
   551   000686  EF47  F003         	goto	u250
   552   00068A                     u251:
   553   00068A  EF49  F003         	goto	l970
   554   00068E                     u250:
   555   00068E  EF0C  F003         	goto	l950
   556   000692                     l970:
   557   000692  90D8               	bcf	status,0,c
   558   000694  3206               	rrcf	(___fltol@f1+3)^0,f,c
   559   000696  3205               	rrcf	(___fltol@f1+2)^0,f,c
   560   000698  3204               	rrcf	(___fltol@f1+1)^0,f,c
   561   00069A  3203               	rrcf	___fltol@f1^0,f,c
   562   00069C  3E0C               	incfsz	___fltol@exp1^0,f,c
   563   00069E  EF49  F003         	goto	l970
   564   0006A2  EF6B  F003         	goto	l984
   565   0006A6                     l974:
   566   0006A6  0E1F               	movlw	31
   567   0006A8  640C               	cpfsgt	___fltol@exp1^0,c
   568   0006AA  EF59  F003         	goto	u261
   569   0006AE  EF5B  F003         	goto	u260
   570   0006B2                     u261:
   571   0006B2  EF63  F003         	goto	l982
   572   0006B6                     u260:
   573   0006B6  EF0C  F003         	goto	l950
   574   0006BA                     l980:
   575   0006BA  90D8               	bcf	status,0,c
   576   0006BC  3603               	rlcf	___fltol@f1^0,f,c
   577   0006BE  3604               	rlcf	(___fltol@f1+1)^0,f,c
   578   0006C0  3605               	rlcf	(___fltol@f1+2)^0,f,c
   579   0006C2  3606               	rlcf	(___fltol@f1+3)^0,f,c
   580   0006C4  060C               	decf	___fltol@exp1^0,f,c
   581   0006C6                     l982:
   582   0006C6  500C               	movf	___fltol@exp1^0,w,c
   583   0006C8  A4D8               	btfss	status,2,c
   584   0006CA  EF69  F003         	goto	u271
   585   0006CE  EF6B  F003         	goto	u270
   586   0006D2                     u271:
   587   0006D2  EF5D  F003         	goto	l980
   588   0006D6                     u270:
   589   0006D6                     l984:
   590   0006D6  500B               	movf	___fltol@sign1^0,w,c
   591   0006D8  B4D8               	btfsc	status,2,c
   592   0006DA  EF71  F003         	goto	u281
   593   0006DE  EF73  F003         	goto	u280
   594   0006E2                     u281:
   595   0006E2  EF7B  F003         	goto	l988
   596   0006E6                     u280:
   597   0006E6  1E06               	comf	(___fltol@f1+3)^0,f,c
   598   0006E8  1E05               	comf	(___fltol@f1+2)^0,f,c
   599   0006EA  1E04               	comf	(___fltol@f1+1)^0,f,c
   600   0006EC  6C03               	negf	___fltol@f1^0,c
   601   0006EE  0E00               	movlw	0
   602   0006F0  2204               	addwfc	(___fltol@f1+1)^0,f,c
   603   0006F2  2205               	addwfc	(___fltol@f1+2)^0,f,c
   604   0006F4  2206               	addwfc	(___fltol@f1+3)^0,f,c
   605   0006F6                     l988:
   606   0006F6  C003  F003         	movff	___fltol@f1,?___fltol
   607   0006FA  C004  F004         	movff	___fltol@f1+1,?___fltol+1
   608   0006FE  C005  F005         	movff	___fltol@f1+2,?___fltol+2
   609   000702  C006  F006         	movff	___fltol@f1+3,?___fltol+3
   610   000706                     l430:
   611   000706  0012               	return		;funcret
   612   000708                     __end_of___fltol:
   613                           	callstack 0
   614                           
   615 ;; *************** function _I2C2_Stop *****************
   616 ;; Defined at:
   617 ;;		line 82 in file "i2c.c"
   618 ;; Parameters:    Size  Location     Type
   619 ;;		None
   620 ;; Auto vars:     Size  Location     Type
   621 ;;		None
   622 ;; Return value:  Size  Location     Type
   623 ;;                  1    wreg      void 
   624 ;; Registers used:
   625 ;;		None
   626 ;; Tracked objects:
   627 ;;		On entry : 0/0
   628 ;;		On exit  : 0/0
   629 ;;		Unchanged: 0/0
   630 ;; Data sizes:     COMRAM   BANK0   BANK1   BANK2   BANK3   BANK4   BANK5
   631 ;;      Params:         0       0       0       0       0       0       0
   632 ;;      Locals:         0       0       0       0       0       0       0
   633 ;;      Temps:          0       0       0       0       0       0       0
   634 ;;      Totals:         0       0       0       0       0       0       0
   635 ;;Total ram usage:        0 bytes
   636 ;; Hardware stack levels used: 1
   637 ;; Hardware stack levels required when called: 2
   638 ;; This function calls:
   639 ;;		Nothing
   640 ;; This function is called by:
   641 ;;		_main
   642 ;; This function uses a non-reentrant model
   643 ;;
   644                           
   645                           	psect	text4
   646   00086A                     __ptext4:
   647                           	callstack 0
   648   00086A                     _I2C2_Stop:
   649                           	callstack 28
   650   00086A                     
   651                           ;i2c.c: 83:  SSP1CON2bits.PEN = 1;
   652   00086A  84C5               	bsf	197,2,c	;volatile
   653   00086C                     l103:
   654   00086C  A69E               	btfss	158,3,c	;volatile
   655   00086E  EF3B  F004         	goto	u121
   656   000872  EF3D  F004         	goto	u120
   657   000876                     u121:
   658   000876  EF36  F004         	goto	l103
   659   00087A                     u120:
   660   00087A                     
   661                           ;i2c.c: 85:  PIR1bits.SSP1IF = 0;
   662   00087A  969E               	bcf	158,3,c	;volatile
   663   00087C  0012               	return		;funcret
   664   00087E                     __end_of_I2C2_Stop:
   665                           	callstack 0
   666                           
   667 ;; *************** function _I2C2_Start *****************
   668 ;; Defined at:
   669 ;;		line 51 in file "i2c.c"
   670 ;; Parameters:    Size  Location     Type
   671 ;;		None
   672 ;; Auto vars:     Size  Location     Type
   673 ;;		None
   674 ;; Return value:  Size  Location     Type
   675 ;;                  1    wreg      void 
   676 ;; Registers used:
   677 ;;		None
   678 ;; Tracked objects:
   679 ;;		On entry : 0/0
   680 ;;		On exit  : 0/0
   681 ;;		Unchanged: 0/0
   682 ;; Data sizes:     COMRAM   BANK0   BANK1   BANK2   BANK3   BANK4   BANK5
   683 ;;      Params:         0       0       0       0       0       0       0
   684 ;;      Locals:         0       0       0       0       0       0       0
   685 ;;      Temps:          0       0       0       0       0       0       0
   686 ;;      Totals:         0       0       0       0       0       0       0
   687 ;;Total ram usage:        0 bytes
   688 ;; Hardware stack levels used: 1
   689 ;; Hardware stack levels required when called: 2
   690 ;; This function calls:
   691 ;;		Nothing
   692 ;; This function is called by:
   693 ;;		_main
   694 ;; This function uses a non-reentrant model
   695 ;;
   696                           
   697                           	psect	text5
   698   00087E                     __ptext5:
   699                           	callstack 0
   700   00087E                     _I2C2_Start:
   701                           	callstack 28
   702   00087E                     
   703                           ;i2c.c: 52:  SSP1CON2bits.SEN = 1;
   704   00087E  80C5               	bsf	197,0,c	;volatile
   705   000880                     l91:
   706   000880  A69E               	btfss	158,3,c	;volatile
   707   000882  EF45  F004         	goto	u91
   708   000886  EF47  F004         	goto	u90
   709   00088A                     u91:
   710   00088A  EF40  F004         	goto	l91
   711   00088E                     u90:
   712   00088E                     
   713                           ;i2c.c: 54:  PIR1bits.SSP1IF = 0;
   714   00088E  969E               	bcf	158,3,c	;volatile
   715   000890  0012               	return		;funcret
   716   000892                     __end_of_I2C2_Start:
   717                           	callstack 0
   718                           
   719 ;; *************** function _I2C2_Send *****************
   720 ;; Defined at:
   721 ;;		line 131 in file "i2c.c"
   722 ;; Parameters:    Size  Location     Type
   723 ;;  BYTE            1    wreg     unsigned char 
   724 ;; Auto vars:     Size  Location     Type
   725 ;;  BYTE            1    2[COMRAM] unsigned char 
   726 ;; Return value:  Size  Location     Type
   727 ;;                  1    wreg      unsigned char 
   728 ;; Registers used:
   729 ;;		wreg
   730 ;; Tracked objects:
   731 ;;		On entry : 0/0
   732 ;;		On exit  : 0/0
   733 ;;		Unchanged: 0/0
   734 ;; Data sizes:     COMRAM   BANK0   BANK1   BANK2   BANK3   BANK4   BANK5
   735 ;;      Params:         0       0       0       0       0       0       0
   736 ;;      Locals:         1       0       0       0       0       0       0
   737 ;;      Temps:          0       0       0       0       0       0       0
   738 ;;      Totals:         1       0       0       0       0       0       0
   739 ;;Total ram usage:        1 bytes
   740 ;; Hardware stack levels used: 1
   741 ;; Hardware stack levels required when called: 2
   742 ;; This function calls:
   743 ;;		Nothing
   744 ;; This function is called by:
   745 ;;		_main
   746 ;; This function uses a non-reentrant model
   747 ;;
   748                           
   749                           	psect	text6
   750   0007C6                     __ptext6:
   751                           	callstack 0
   752   0007C6                     _I2C2_Send:
   753                           	callstack 28
   754                           
   755                           ;incstack = 0
   756                           ;I2C2_Send@BYTE stored from wreg
   757   0007C6  6E03               	movwf	I2C2_Send@BYTE^0,c
   758   0007C8                     
   759                           ;i2c.c: 132:  SSP1BUF = BYTE;
   760   0007C8  C003  FFC9         	movff	I2C2_Send@BYTE,4041	;volatile
   761   0007CC                     l121:
   762   0007CC  A69E               	btfss	158,3,c	;volatile
   763   0007CE  EFEB  F003         	goto	u101
   764   0007D2  EFED  F003         	goto	u100
   765   0007D6                     u101:
   766   0007D6  EFE6  F003         	goto	l121
   767   0007DA                     u100:
   768   0007DA                     
   769                           ;i2c.c: 134:  PIR1bits.SSP1IF = 0;
   770   0007DA  969E               	bcf	158,3,c	;volatile
   771                           
   772                           ;i2c.c: 135:  return SSP1CON2bits.ACKSTAT;
   773   0007DC  BCC5               	btfsc	197,6,c	;volatile
   774   0007DE  EFF3  F003         	goto	u111
   775   0007E2  EFF6  F003         	goto	u110
   776   0007E6                     u111:
   777   0007E6  0E01               	movlw	1
   778   0007E8  EFF7  F003         	goto	u116
   779   0007EC                     u110:
   780   0007EC  0E00               	movlw	0
   781   0007EE                     u116:
   782   0007EE  0012               	return		;funcret
   783   0007F0                     __end_of_I2C2_Send:
   784                           	callstack 0
   785                           
   786 ;; *************** function _I2C2_Read *****************
   787 ;; Defined at:
   788 ;;		line 147 in file "i2c.c"
   789 ;; Parameters:    Size  Location     Type
   790 ;;		None
   791 ;; Auto vars:     Size  Location     Type
   792 ;;		None
   793 ;; Return value:  Size  Location     Type
   794 ;;                  1    wreg      unsigned char 
   795 ;; Registers used:
   796 ;;		wreg, status,2
   797 ;; Tracked objects:
   798 ;;		On entry : 0/0
   799 ;;		On exit  : 0/0
   800 ;;		Unchanged: 0/0
   801 ;; Data sizes:     COMRAM   BANK0   BANK1   BANK2   BANK3   BANK4   BANK5
   802 ;;      Params:         0       0       0       0       0       0       0
   803 ;;      Locals:         0       0       0       0       0       0       0
   804 ;;      Temps:          0       0       0       0       0       0       0
   805 ;;      Totals:         0       0       0       0       0       0       0
   806 ;;Total ram usage:        0 bytes
   807 ;; Hardware stack levels used: 1
   808 ;; Hardware stack levels required when called: 2
   809 ;; This function calls:
   810 ;;		Nothing
   811 ;; This function is called by:
   812 ;;		_main
   813 ;; This function uses a non-reentrant model
   814 ;;
   815                           
   816                           	psect	text7
   817   00083E                     __ptext7:
   818                           	callstack 0
   819   00083E                     _I2C2_Read:
   820                           	callstack 28
   821   00083E                     
   822                           ;i2c.c: 148:  SSP1CON2bits.RCEN = 1;
   823   00083E  86C5               	bsf	197,3,c	;volatile
   824   000840                     l127:
   825   000840  A69E               	btfss	158,3,c	;volatile
   826   000842  EF25  F004         	goto	u131
   827   000846  EF27  F004         	goto	u130
   828   00084A                     u131:
   829   00084A  EF20  F004         	goto	l127
   830   00084E                     u130:
   831   00084E                     
   832                           ;i2c.c: 150:  PIR1bits.SSP1IF = 0;
   833   00084E  969E               	bcf	158,3,c	;volatile
   834   000850                     
   835                           ;i2c.c: 151:     return SSP1BUF;
   836   000850  50C9               	movf	201,w,c	;volatile
   837   000852  0012               	return		;funcret
   838   000854                     __end_of_I2C2_Read:
   839                           	callstack 0
   840                           
   841 ;; *************** function _I2C2_Init *****************
   842 ;; Defined at:
   843 ;;		line 20 in file "i2c.c"
   844 ;; Parameters:    Size  Location     Type
   845 ;;		None
   846 ;; Auto vars:     Size  Location     Type
   847 ;;		None
   848 ;; Return value:  Size  Location     Type
   849 ;;                  1    wreg      void 
   850 ;; Registers used:
   851 ;;		wreg, status,2
   852 ;; Tracked objects:
   853 ;;		On entry : 0/0
   854 ;;		On exit  : 0/0
   855 ;;		Unchanged: 0/0
   856 ;; Data sizes:     COMRAM   BANK0   BANK1   BANK2   BANK3   BANK4   BANK5
   857 ;;      Params:         0       0       0       0       0       0       0
   858 ;;      Locals:         0       0       0       0       0       0       0
   859 ;;      Temps:          0       0       0       0       0       0       0
   860 ;;      Totals:         0       0       0       0       0       0       0
   861 ;;Total ram usage:        0 bytes
   862 ;; Hardware stack levels used: 1
   863 ;; Hardware stack levels required when called: 2
   864 ;; This function calls:
   865 ;;		Nothing
   866 ;; This function is called by:
   867 ;;		_main
   868 ;; This function uses a non-reentrant model
   869 ;;
   870                           
   871                           	psect	text8
   872   000810                     __ptext8:
   873                           	callstack 0
   874   000810                     _I2C2_Init:
   875                           	callstack 28
   876   000810                     
   877                           ;i2c.c: 21:     TRISCbits.RC4 = 1;
   878   000810  8894               	bsf	148,4,c	;volatile
   879                           
   880                           ;i2c.c: 22:     TRISCbits.RC3 = 1;
   881   000812  8694               	bsf	148,3,c	;volatile
   882                           
   883                           ;i2c.c: 25:     ANSELCbits.ANSC3 = 0;
   884   000814  010F               	movlb	15	; () banked
   885   000816  973A               	bcf	58,3,b	;volatile
   886                           
   887                           ;i2c.c: 26:     ANSELCbits.ANSC4 = 0;
   888   000818  993A               	bcf	58,4,b	;volatile
   889   00081A                     
   890                           ; BSR set to: 15
   891                           ;i2c.c: 28:     SSP1STAT = 0b10000000;
   892   00081A  0E80               	movlw	128
   893   00081C  6EC7               	movwf	199,c	;volatile
   894                           
   895                           ;i2c.c: 37:  SSP1CON1 = 0b00101000;
   896   00081E  0E28               	movlw	40
   897   000820  6EC6               	movwf	198,c	;volatile
   898                           
   899                           ;i2c.c: 38:     SSP1ADD = 159u;
   900   000822  0E9F               	movlw	159
   901   000824  6EC8               	movwf	200,c	;volatile
   902   000826                     
   903                           ; BSR set to: 15
   904   000826  0012               	return		;funcret
   905   000828                     __end_of_I2C2_Init:
   906                           	callstack 0
   907                           
   908 ;; *************** function _isr *****************
   909 ;; Defined at:
   910 ;;		line 66 in file "main.c"
   911 ;; Parameters:    Size  Location     Type
   912 ;;		None
   913 ;; Auto vars:     Size  Location     Type
   914 ;;  receive_data    1    1[COMRAM] unsigned char 
   915 ;; Return value:  Size  Location     Type
   916 ;;                  1    wreg      void 
   917 ;; Registers used:
   918 ;;		wreg, status,2, status,0, cstack
   919 ;; Tracked objects:
   920 ;;		On entry : 0/0
   921 ;;		On exit  : 0/0
   922 ;;		Unchanged: 0/0
   923 ;; Data sizes:     COMRAM   BANK0   BANK1   BANK2   BANK3   BANK4   BANK5
   924 ;;      Params:         0       0       0       0       0       0       0
   925 ;;      Locals:         1       0       0       0       0       0       0
   926 ;;      Temps:          0       0       0       0       0       0       0
   927 ;;      Totals:         1       0       0       0       0       0       0
   928 ;;Total ram usage:        1 bytes
   929 ;; Hardware stack levels used: 1
   930 ;; Hardware stack levels required when called: 1
   931 ;; This function calls:
   932 ;;		i2_UART_TransmitChar
   933 ;; This function is called by:
   934 ;;		Interrupt level 2
   935 ;; This function uses a non-reentrant model
   936 ;;
   937                           
   938                           	psect	intcode
   939   000008                     __pintcode:
   940                           	callstack 0
   941   000008                     _isr:
   942                           	callstack 27
   943                           
   944                           ; BSR set to: 15
   945                           ;incstack = 0
   946   000008  8214               	bsf	int$flags,1,c	;set compiler interrupt flag (level 2)
   947   00000A                     
   948                           ;main.c: 68:     unsigned char receive_data = 0x00;
   949   00000A  0E00               	movlw	0
   950   00000C  6E02               	movwf	isr@receive_data^0,c
   951   00000E                     
   952                           ;main.c: 71:     if (PIR1bits.RC1IF)
   953   00000E  AA9E               	btfss	158,5,c	;volatile
   954   000010  EF0C  F000         	goto	i2u30_41
   955   000014  EF0E  F000         	goto	i2u30_40
   956   000018                     i2u30_41:
   957   000018  EF11  F000         	goto	i2l1018
   958   00001C                     i2u30_40:
   959   00001C                     
   960                           ;main.c: 72:     {;main.c: 73:       receive_data = RCREG1;
   961   00001C  CFAE F002          	movff	4014,isr@receive_data	;volatile
   962                           
   963                           ;main.c: 75:         PIR1bits.RC1IF = 0;
   964   000020  9A9E               	bcf	158,5,c	;volatile
   965   000022                     i2l1018:
   966                           
   967                           ;main.c: 79:     if(check_ack == 0x00)
   968   000022  5013               	movf	_check_ack^0,w,c
   969   000024  A4D8               	btfss	status,2,c
   970   000026  EF17  F000         	goto	i2u31_41
   971   00002A  EF19  F000         	goto	i2u31_40
   972   00002E                     i2u31_41:
   973   00002E  EF28  F000         	goto	i2l60
   974   000032                     i2u31_40:
   975   000032                     
   976                           ;main.c: 80:     {;main.c: 81:         if(receive_data == 0x01){
   977   000032  0402               	decf	isr@receive_data^0,w,c
   978   000034  A4D8               	btfss	status,2,c
   979   000036  EF1F  F000         	goto	i2u32_41
   980   00003A  EF21  F000         	goto	i2u32_40
   981   00003E                     i2u32_41:
   982   00003E  EF25  F000         	goto	i2l1024
   983   000042                     i2u32_40:
   984   000042                     
   985                           ;main.c: 82:             eeprom_query_flag = 0x01;
   986   000042  0E01               	movlw	1
   987   000044  6E11               	movwf	_eeprom_query_flag^0,c
   988                           
   989                           ;main.c: 83:         }else{
   990   000046  EF28  F000         	goto	i2l60
   991   00004A                     i2l1024:
   992                           
   993                           ;main.c: 84:             UART_TransmitChar(receive_data+1);
   994   00004A  2802               	incf	isr@receive_data^0,w,c
   995   00004C  EC2A  F004         	call	i2_UART_TransmitChar
   996   000050                     i2l60:
   997   000050  9214               	bcf	int$flags,1,c	;clear compiler interrupt flag (level 2)
   998   000052  0011               	retfie		f
   999   000054                     __end_of_isr:
  1000                           	callstack 0
  1001                           
  1002 ;; *************** function i2_UART_TransmitChar *****************
  1003 ;; Defined at:
  1004 ;;		line 53 in file "main.c"
  1005 ;; Parameters:    Size  Location     Type
  1006 ;;  data            1    wreg     unsigned char 
  1007 ;; Auto vars:     Size  Location     Type
  1008 ;;  data            1    0[COMRAM] unsigned char 
  1009 ;; Return value:  Size  Location     Type
  1010 ;;                  1    wreg      void 
  1011 ;; Registers used:
  1012 ;;		wreg
  1013 ;; Tracked objects:
  1014 ;;		On entry : 0/0
  1015 ;;		On exit  : 0/0
  1016 ;;		Unchanged: 0/0
  1017 ;; Data sizes:     COMRAM   BANK0   BANK1   BANK2   BANK3   BANK4   BANK5
  1018 ;;      Params:         0       0       0       0       0       0       0
  1019 ;;      Locals:         1       0       0       0       0       0       0
  1020 ;;      Temps:          0       0       0       0       0       0       0
  1021 ;;      Totals:         1       0       0       0       0       0       0
  1022 ;;Total ram usage:        1 bytes
  1023 ;; Hardware stack levels used: 1
  1024 ;; This function calls:
  1025 ;;		Nothing
  1026 ;; This function is called by:
  1027 ;;		_isr
  1028 ;; This function uses a non-reentrant model
  1029 ;;
  1030                           
  1031                           	psect	text10
  1032   000854                     __ptext10:
  1033                           	callstack 0
  1034   000854                     i2_UART_TransmitChar:
  1035                           	callstack 27
  1036                           
  1037                           ;incstack = 0
  1038                           ;i2UART_TransmitChar@data stored from wreg
  1039   000854  6E01               	movwf	i2UART_TransmitChar@data^0,c
  1040   000856                     i2l48:
  1041   000856  A89E               	btfss	158,4,c	;volatile
  1042   000858  EF30  F004         	goto	i2u29_41
  1043   00085C  EF32  F004         	goto	i2u29_40
  1044   000860                     i2u29_41:
  1045   000860  EF2B  F004         	goto	i2l48
  1046   000864                     i2u29_40:
  1047   000864                     
  1048                           ;main.c: 56:     TXREG = data;
  1049   000864  C001  FFAD         	movff	i2UART_TransmitChar@data,4013	;volatile
  1050   000868  0012               	return		;funcret
  1051   00086A                     __end_ofi2_UART_TransmitChar:
  1052                           	callstack 0
  1053                           
  1054                           	psect	smallconst
  1055   000600                     __psmallconst:
  1056                           	callstack 0
  1057   000600  00                 	db	0
  1058   000601  00                 	db	0	; dummy byte at the end
  1059   000000                     
  1060                           	psect	rparam
  1061   000000                     
  1062                           	psect	temp
  1063   000014                     btemp:
  1064                           	callstack 0
  1065   000014                     	ds	1
  1066   000000                     int$flags	set	btemp
  1067   000000                     wtemp8	set	btemp+1
  1068   000000                     ttemp5	set	btemp+1
  1069   000000                     ttemp6	set	btemp+4
  1070   000000                     ttemp7	set	btemp+8
  1071                           
  1072                           	psect	config
  1073                           
  1074                           ; Padding undefined space
  1075   300000                     	org	3145728
  1076   300000  FF                 	db	255
  1077                           
  1078                           ;Config register CONFIG1H @ 0x300001
  1079                           ;	Oscillator Selection bits
  1080                           ;	FOSC = INTIO67, Internal oscillator block
  1081                           ;	4X PLL Enable
  1082                           ;	PLLCFG = ON, Oscillator multiplied by 4
  1083                           ;	Primary clock enable bit
  1084                           ;	PRICLKEN = ON, Primary clock enabled
  1085                           ;	Fail-Safe Clock Monitor Enable bit
  1086                           ;	FCMEN = OFF, Fail-Safe Clock Monitor disabled
  1087                           ;	Internal/External Oscillator Switchover bit
  1088                           ;	IESO = OFF, Oscillator Switchover mode disabled
  1089   300001                     	org	3145729
  1090   300001  38                 	db	56
  1091                           
  1092                           ;Config register CONFIG2L @ 0x300002
  1093                           ;	Power-up Timer Enable bit
  1094                           ;	PWRTEN = OFF, Power up timer disabled
  1095                           ;	Brown-out Reset Enable bits
  1096                           ;	BOREN = SBORDIS, Brown-out Reset enabled in hardware only (SBOREN is disabled)
  1097                           ;	Brown Out Reset Voltage bits
  1098                           ;	BORV = 250, VBOR set to 2.50 V nominal
  1099   300002                     	org	3145730
  1100   300002  0F                 	db	15
  1101                           
  1102                           ;Config register CONFIG2H @ 0x300003
  1103                           ;	Watchdog Timer Enable bits
  1104                           ;	WDTEN = OFF, Watch dog timer is always disabled. SWDTEN has no effect.
  1105                           ;	Watchdog Timer Postscale Select bits
  1106                           ;	WDTPS = 32768, 1:32768
  1107   300003                     	org	3145731
  1108   300003  3C                 	db	60
  1109                           
  1110                           ; Padding undefined space
  1111   300004                     	org	3145732
  1112   300004  FF                 	db	255
  1113                           
  1114                           ;Config register CONFIG3H @ 0x300005
  1115                           ;	CCP2 MUX bit
  1116                           ;	CCP2MX = PORTC1, CCP2 input/output is multiplexed with RC1
  1117                           ;	PORTB A/D Enable bit
  1118                           ;	PBADEN = ON, PORTB<5:0> pins are configured as analog input channels on Reset
  1119                           ;	P3A/CCP3 Mux bit
  1120                           ;	CCP3MX = PORTB5, P3A/CCP3 input/output is multiplexed with RB5
  1121                           ;	HFINTOSC Fast Start-up
  1122                           ;	HFOFST = ON, HFINTOSC output and ready status are not delayed by the oscillator stable
      +                           status
  1123                           ;	Timer3 Clock input mux bit
  1124                           ;	T3CMX = PORTC0, T3CKI is on RC0
  1125                           ;	ECCP2 B output mux bit
  1126                           ;	P2BMX = PORTB5, P2B is on RB5
  1127                           ;	MCLR Pin Enable bit
  1128                           ;	MCLRE = EXTMCLR, MCLR pin enabled, RE3 input pin disabled
  1129   300005                     	org	3145733
  1130   300005  BF                 	db	191
  1131                           
  1132                           ;Config register CONFIG4L @ 0x300006
  1133                           ;	Stack Full/Underflow Reset Enable bit
  1134                           ;	STVREN = ON, Stack full/underflow will cause Reset
  1135                           ;	Single-Supply ICSP Enable bit
  1136                           ;	LVP = ON, Single-Supply ICSP enabled if MCLRE is also 1
  1137                           ;	Extended Instruction Set Enable bit
  1138                           ;	XINST = OFF, Instruction set extension and Indexed Addressing mode disabled (Legacy mo
      +                          de)
  1139                           ;	Background Debug
  1140                           ;	DEBUG = 0x1, unprogrammed default
  1141   300006                     	org	3145734
  1142   300006  85                 	db	133
  1143                           
  1144                           ; Padding undefined space
  1145   300007                     	org	3145735
  1146   300007  FF                 	db	255
  1147                           
  1148                           ;Config register CONFIG5L @ 0x300008
  1149                           ;	Code Protection Block 0
  1150                           ;	CP0 = OFF, Block 0 (000800-001FFFh) not code-protected
  1151                           ;	Code Protection Block 1
  1152                           ;	CP1 = OFF, Block 1 (002000-003FFFh) not code-protected
  1153                           ;	Code Protection Block 2
  1154                           ;	CP2 = OFF, Block 2 (004000-005FFFh) not code-protected
  1155                           ;	Code Protection Block 3
  1156                           ;	CP3 = OFF, Block 3 (006000-007FFFh) not code-protected
  1157   300008                     	org	3145736
  1158   300008  0F                 	db	15
  1159                           
  1160                           ;Config register CONFIG5H @ 0x300009
  1161                           ;	Boot Block Code Protection bit
  1162                           ;	CPB = OFF, Boot block (000000-0007FFh) not code-protected
  1163                           ;	Data EEPROM Code Protection bit
  1164                           ;	CPD = OFF, Data EEPROM not code-protected
  1165   300009                     	org	3145737
  1166   300009  C0                 	db	192
  1167                           
  1168                           ;Config register CONFIG6L @ 0x30000A
  1169                           ;	Write Protection Block 0
  1170                           ;	WRT0 = OFF, Block 0 (000800-001FFFh) not write-protected
  1171                           ;	Write Protection Block 1
  1172                           ;	WRT1 = OFF, Block 1 (002000-003FFFh) not write-protected
  1173                           ;	Write Protection Block 2
  1174                           ;	WRT2 = OFF, Block 2 (004000-005FFFh) not write-protected
  1175                           ;	Write Protection Block 3
  1176                           ;	WRT3 = OFF, Block 3 (006000-007FFFh) not write-protected
  1177   30000A                     	org	3145738
  1178   30000A  0F                 	db	15
  1179                           
  1180                           ;Config register CONFIG6H @ 0x30000B
  1181                           ;	Configuration Register Write Protection bit
  1182                           ;	WRTC = OFF, Configuration registers (300000-3000FFh) not write-protected
  1183                           ;	Boot Block Write Protection bit
  1184                           ;	WRTB = OFF, Boot Block (000000-0007FFh) not write-protected
  1185                           ;	Data EEPROM Write Protection bit
  1186                           ;	WRTD = OFF, Data EEPROM not write-protected
  1187   30000B                     	org	3145739
  1188   30000B  E0                 	db	224
  1189                           
  1190                           ;Config register CONFIG7L @ 0x30000C
  1191                           ;	Table Read Protection Block 0
  1192                           ;	EBTR0 = OFF, Block 0 (000800-001FFFh) not protected from table reads executed in other
      +                           blocks
  1193                           ;	Table Read Protection Block 1
  1194                           ;	EBTR1 = OFF, Block 1 (002000-003FFFh) not protected from table reads executed in other
      +                           blocks
  1195                           ;	Table Read Protection Block 2
  1196                           ;	EBTR2 = OFF, Block 2 (004000-005FFFh) not protected from table reads executed in other
      +                           blocks
  1197                           ;	Table Read Protection Block 3
  1198                           ;	EBTR3 = OFF, Block 3 (006000-007FFFh) not protected from table reads executed in other
      +                           blocks
  1199   30000C                     	org	3145740
  1200   30000C  0F                 	db	15
  1201                           
  1202                           ;Config register CONFIG7H @ 0x30000D
  1203                           ;	Boot Block Table Read Protection bit
  1204                           ;	EBTRB = OFF, Boot Block (000000-0007FFh) not protected from table reads executed in ot
      +                          her blocks
  1205   30000D                     	org	3145741
  1206   30000D  40                 	db	64
  1207                           tosu	equ	0xFFF
  1208                           tosh	equ	0xFFE
  1209                           tosl	equ	0xFFD
  1210                           stkptr	equ	0xFFC
  1211                           pclatu	equ	0xFFB
  1212                           pclath	equ	0xFFA
  1213                           pcl	equ	0xFF9
  1214                           tblptru	equ	0xFF8
  1215                           tblptrh	equ	0xFF7
  1216                           tblptrl	equ	0xFF6
  1217                           tablat	equ	0xFF5
  1218                           prodh	equ	0xFF4
  1219                           prodl	equ	0xFF3
  1220                           indf0	equ	0xFEF
  1221                           postinc0	equ	0xFEE
  1222                           postdec0	equ	0xFED
  1223                           preinc0	equ	0xFEC
  1224                           plusw0	equ	0xFEB
  1225                           fsr0h	equ	0xFEA
  1226                           fsr0l	equ	0xFE9
  1227                           wreg	equ	0xFE8
  1228                           indf1	equ	0xFE7
  1229                           postinc1	equ	0xFE6
  1230                           postdec1	equ	0xFE5
  1231                           preinc1	equ	0xFE4
  1232                           plusw1	equ	0xFE3
  1233                           fsr1h	equ	0xFE2
  1234                           fsr1l	equ	0xFE1
  1235                           bsr	equ	0xFE0
  1236                           indf2	equ	0xFDF
  1237                           postinc2	equ	0xFDE
  1238                           postdec2	equ	0xFDD
  1239                           preinc2	equ	0xFDC
  1240                           plusw2	equ	0xFDB
  1241                           fsr2h	equ	0xFDA
  1242                           fsr2l	equ	0xFD9
  1243                           status	equ	0xFD8

Data Sizes:
    Strings     0
    Constant    0
    Data        1
    BSS         2
    Persistent  0
    Stack       0

Auto Spaces:
    Space          Size  Autos    Used
    COMRAM           94     16      19
    BANK0           160      0       0
    BANK1           256      0       0
    BANK2           256      0       0
    BANK3           256      0       0
    BANK4           256      0       0
    BANK5           256      0       0

Pointer List with Targets:

    None.

Critical Paths under _main in COMRAM

    _main->_UART_Init
    _UART_Init->___fltol

Critical Paths under _isr in COMRAM

    _isr->i2_UART_TransmitChar

Critical Paths under _main in BANK0

    None.

Critical Paths under _isr in BANK0

    None.

Critical Paths under _main in BANK1

    None.

Critical Paths under _isr in BANK1

    None.

Critical Paths under _main in BANK2

    None.

Critical Paths under _isr in BANK2

    None.

Critical Paths under _main in BANK3

    None.

Critical Paths under _isr in BANK3

    None.

Critical Paths under _main in BANK4

    None.

Critical Paths under _isr in BANK4

    None.

Critical Paths under _main in BANK5

    None.

Critical Paths under _isr in BANK5

    None.

Call Graph Tables:

 ---------------------------------------------------------------------------------
 (Depth) Function   	        Calls       Base Space   Used Autos Params    Refs
 ---------------------------------------------------------------------------------
 (0) _main                                                 0     0      0     358
                          _I2C2_Init
                          _I2C2_Read
                          _I2C2_Send
                         _I2C2_Start
                          _I2C2_Stop
                          _UART_Init
                  _UART_TransmitChar
 ---------------------------------------------------------------------------------
 (1) _UART_TransmitChar                                    1     1      0      15
                                              2 COMRAM     1     1      0
 ---------------------------------------------------------------------------------
 (1) _UART_Init                                            4     4      0     328
                                             12 COMRAM     4     4      0
                            ___fltol
 ---------------------------------------------------------------------------------
 (2) ___fltol                                             10     6      4     305
                                              2 COMRAM    10     6      4
 ---------------------------------------------------------------------------------
 (1) _I2C2_Stop                                            0     0      0       0
 ---------------------------------------------------------------------------------
 (1) _I2C2_Start                                           0     0      0       0
 ---------------------------------------------------------------------------------
 (1) _I2C2_Send                                            1     1      0      15
                                              2 COMRAM     1     1      0
 ---------------------------------------------------------------------------------
 (1) _I2C2_Read                                            0     0      0       0
 ---------------------------------------------------------------------------------
 (1) _I2C2_Init                                            0     0      0       0
 ---------------------------------------------------------------------------------
 Estimated maximum stack depth 2
 ---------------------------------------------------------------------------------
 (Depth) Function   	        Calls       Base Space   Used Autos Params    Refs
 ---------------------------------------------------------------------------------
 (3) _isr                                                  1     1      0      68
                                              1 COMRAM     1     1      0
                i2_UART_TransmitChar
 ---------------------------------------------------------------------------------
 (4) i2_UART_TransmitChar                                  1     1      0      22
                                              0 COMRAM     1     1      0
 ---------------------------------------------------------------------------------
 Estimated maximum stack depth 4
 ---------------------------------------------------------------------------------

 Call Graph Graphs:

 _main (ROOT)
   _I2C2_Init
   _I2C2_Read
   _I2C2_Send
   _I2C2_Start
   _I2C2_Stop
   _UART_Init
     ___fltol
   _UART_TransmitChar

 _isr (ROOT)
   i2_UART_TransmitChar

 Address spaces:
Name               Size   Autos  Total    Cost      Usage
BIGRAM             5FF      0       0      25        0.0%
EEDATA             100      0       0       0        0.0%
BITBANK5           100      0       0      13        0.0%
BANK5              100      0       0      14        0.0%
BITBANK4           100      0       0      11        0.0%
BANK4              100      0       0      12        0.0%
BITBANK3           100      0       0       9        0.0%
BANK3              100      0       0      10        0.0%
BITBANK2           100      0       0       7        0.0%
BANK2              100      0       0       8        0.0%
BITBANK1           100      0       0       5        0.0%
BANK1              100      0       0       6        0.0%
BITBANK0            A0      0       0       3        0.0%
BANK0               A0      0       0       4        0.0%
BITCOMRAM           5E      0       0       0        0.0%
COMRAM              5E     10      13       1       20.2%
BITBIGSFRlh         59      0       0      22        0.0%
BITBIGSFRhhlh       1E      0       0      16        0.0%
BITBIGSFRhhlll      15      0       0      18        0.0%
BITBIGSFRhhh         D      0       0      15        0.0%
BITBIGSFRhlhl        C      0       0      19        0.0%
BITBIGSFRhhllh       9      0       0      17        0.0%
BITBIGSFRhlll        6      0       0      21        0.0%
BITBIGSFRll          2      0       0      23        0.0%
BITBIGSFRhllh        1      0       0      20        0.0%
BIGSFR               0      0       0     200        0.0%
BITSFR_1             0      0       0     200        0.0%
SFR_1                0      0       0     200        0.0%
BITSFR               0      0       0     200        0.0%
SFR                  0      0       0     200        0.0%
STACK                0      0       0       2        0.0%
NULL                 0      0       0       0        0.0%
ABS                  0      0      13      24        0.0%
DATA                 0      0      13      26        0.0%
CODE                 0      0       0       0        0.0%


Microchip Technology PIC18 Macro Assembler V2.46 build 20240104201356 
Symbol Table                                                                                   Fri Apr 05 04:05:58 2024

                         l51 083C                           l45 07C4                           l48 082A  
                         l91 0880                           l93 088E                           l94 0890  
                         l88 0826                           u80 0838                           u81 0834  
                         u90 088E                           u91 088A                          l103 086C  
                        l121 07CC                          l105 087A                          l130 0852  
                        l106 087C                          l123 07DA                          l124 07EE  
                        l127 0840                          l129 084E                          l430 0706  
                        l870 0810                          l950 0618                          l872 081A  
                        l880 083E                          l960 0668                          l882 0850  
                        l874 087E                          l970 0692                          l962 066C  
                        l954 062C                          l866 082A                          l876 07C8  
                        l980 06BA                          l972 069C                          l964 067A  
                        l956 0656                          l948 0602                          l868 0838  
                        l878 086A                          l982 06C6                          l974 06A6  
                        l958 0658                          l984 06D6                          l992 0786  
                        l986 06E6                          l994 078E                          l988 06F6  
                        l996 079E                          l998 07B6                          u100 07DA  
                        u101 07D6                          u110 07EC                          u111 07E6  
                        u120 087A                          u121 0876                          u130 084E  
                        u131 084A                          u116 07EE                          u220 0618  
                        u221 0614                          u230 064C                          u240 067A  
                        u241 0676                          u250 068E                          u330 074A  
                        u251 068A                          u235 0642                          u331 0746  
                        u260 06B6                          u261 06B2                          u270 06D6  
                        u271 06D2                          u280 06E6                          u281 06E2  
                        _isr 0008                          wreg 0FE8                 ___fltol@exp1 000C  
                       l1000 07B8                         l1002 07BA                         l1004 07BC  
                       l1006 07C0                         l1030 0714                         l1040 0730  
                       l1032 0718                         l1050 0754                         l1042 0736  
                       l1034 071C                         l1026 0708                         l1060 0774  
                       l1052 075A                         l1044 073A                         l1036 0724  
                       l1028 0710                         l1062 077A                         l1054 0760  
                       l1046 074A                         l1038 072A                         l1056 076A  
                       l1048 074E                         l1058 0770                         ?_isr 0001  
                       i2l51 0868                         i2l60 0050                         i2l48 0856  
    i2UART_TransmitChar@data 0001                         _main 0708                         btemp 0014  
                       start 0054                 ___param_bank 0000                        ??_isr 0002  
            isr@receive_data 0002                ___fltol@sign1 000B            __end_of_I2C2_Init 0828  
          __end_of_I2C2_Read 0854                        ?_main 0001            __end_of_I2C2_Send 07F0  
          __end_of_I2C2_Stop 087E              __end_of___fltol 0708                        _TXREG 0FAD  
                      tablat 0FF5                        ttemp5 0015                        ttemp6 0018  
                      ttemp7 001C                        status 0FD8                        wtemp8 0015  
               ??_I2C2_Start 0003              __initialization 07F0                 __end_of_main 0786  
                     ??_main 0011                __activetblptr 0000           __end_of_I2C2_Start 0892  
                     i2l1010 0864                       i2l1020 0032                       i2l1012 000A  
                     i2l1022 0042                       i2l1014 000E                       i2l1008 0856  
                     i2l1024 004A                       i2l1016 001C                       i2l1018 0022  
                     _RCREG1 0FAE                       _RCSTA1 0FAB                       _OSCCON 0FD3  
                     _SPBRG1 0FAF                       _TRISC6 7CA6                       _TRISC7 7CA7  
                     _TXSTA1 0FAC            __end_of_UART_Init 07C6                    ??___fltol 0007  
                     isa$std 0001                 __pdataCOMRAM 0013                 __mediumconst 0000  
                     tblptrh 0FF7                       tblptrl 0FF6                       tblptru 0FF8  
                 __accesstop 0060      __end_of__initialization 0806                ___rparam_used 0001  
                 ___fltol@f1 0003               __pcstackCOMRAM 0001                    _I2C2_Init 0810  
                  _I2C2_Read 083E                    _I2C2_Send 07C6                    _I2C2_Stop 086A  
                    i2u30_40 001C                      i2u30_41 0018                      i2u31_40 0032  
                    i2u31_41 002E                      i2u32_40 0042                      i2u32_41 003E  
                    i2u29_40 0864                      i2u29_41 0860                      _OSCTUNE 0F9B  
                    _SSP1ADD 0FC8                      _SSP1BUF 0FC9          i2_UART_TransmitChar 0854  
                    __Hparam 0000                      __Lparam 0000                      ___fltol 0602  
       ?i2_UART_TransmitChar 0001                 __psmallconst 0600                      __pcinit 07F0  
                    __ramtop 0600                      __ptext0 0708                      __ptext1 0828  
                    __ptext2 0786                      __ptext3 0602                      __ptext4 086A  
                    __ptext5 087E                      __ptext6 07C6                      __ptext7 083E  
                    __ptext8 0810                   ?_I2C2_Init 0001                   ?_I2C2_Read 0001  
                 ?_I2C2_Send 0001                   ?_I2C2_Stop 0001         end_of_initialization 0806  
          _eeprom_query_flag 0011        ??i2_UART_TransmitChar 0001                    _UART_Init 0786  
                  _TRISCbits 0F94                   ?_UART_Init 0001                __pidataCOMRAM 0892  
        start_initialization 07F0                  ??_I2C2_Init 0003                  ??_I2C2_Read 0003  
                ??_I2C2_Send 0003                  ??_I2C2_Stop 0003                  __end_of_isr 0054  
                __pbssCOMRAM 0011                    _check_ack 0013                    __pintcode 0008  
              UART_Init@temp 000D                     ?___fltol 0003            _UART_TransmitChar 0828  
                ??_UART_Init 000D           ?_UART_TransmitChar 0001                  __smallconst 0600  
        ??_UART_TransmitChar 0003                  _eeprom_data 0012                     _PIE1bits 0F9D  
                   _PIR1bits 0F9E                   _I2C2_Start 087E    __end_of_UART_TransmitChar 083E  
                   _SSP1CON1 0FC6                     _SSP1STAT 0FC7  __end_ofi2_UART_TransmitChar 086A  
                   __Hrparam 0000                     __Lrparam 0000                   _ANSELCbits 0F3A  
                   __ptext10 0854                 _SSP1CON2bits 0FC5        UART_TransmitChar@data 0003  
                ?_I2C2_Start 0001                     isa$xinst 0000                     int$flags 0014  
                 _INTCONbits 0FF2                     intlevel2 0000                I2C2_Send@BYTE 0003  
